(dp1
S'agents'
p2
(lp3
(igame
Agent
p4
(dp5
S'index'
p6
I0
sba(igame
Agent
p7
(dp8
g6
I0
sba(igame
Agent
p9
(dp10
g6
I0
sba(igame
Agent
p11
(dp12
g6
I0
sbasS'length'
p13
I3000
sS'layout'
p14
(ilayout
Layout
p15
(dp16
S'capsules'
p17
(lp18
(I6
I5
tp19
a(I25
I10
tp20
asS'numGhosts'
p21
I4
sS'food'
p22
(igame
Grid
p23
(dp24
S'CELLS_PER_INT'
p25
I30
sS'width'
p26
I32
sS'data'
p27
(lp28
(lp29
I00
aI00
aI00
aI00
aI00
aI00
aI00
aI00
aI00
aI00
aI00
aI00
aI00
aI00
aI00
aI00
aa(lp30
I00
aI00
aI00
aI00
aI00
aI00
aI00
aI00
aI00
aI00
aI00
aI00
aI00
aI00
aI00
aI00
aa(lp31
I00
aI00
aI00
aI00
aI00
aI00
aI00
aI00
aI00
aI00
aI00
aI00
aI00
aI00
aI00
aI00
aa(lp32
I00
aI01
aI01
aI00
aI00
aI00
aI00
aI00
aI01
aI00
aI00
aI00
aI00
aI00
aI00
aI00
aa(lp33
I00
aI00
aI00
aI00
aI00
aI00
aI00
aI00
aI00
aI00
aI00
aI00
aI00
aI00
aI00
aI00
aa(lp34
I00
aI01
aI00
aI00
aI00
aI00
aI00
aI00
aI00
aI00
aI00
aI00
aI01
aI00
aI01
aI00
aa(lp35
I00
aI00
aI00
aI00
aI00
aI00
aI00
aI00
aI00
aI00
aI00
aI00
aI00
aI00
aI00
aI00
aa(lp36
I00
aI00
aI00
aI01
aI00
aI00
aI00
aI00
aI01
aI01
aI00
aI00
aI00
aI00
aI00
aI00
aa(lp37
I00
aI00
aI00
aI01
aI00
aI00
aI00
aI00
aI00
aI01
aI00
aI00
aI00
aI00
aI01
aI00
aa(lp38
I00
aI00
aI00
aI00
aI00
aI01
aI00
aI00
aI00
aI00
aI00
aI01
aI00
aI00
aI00
aI00
aa(lp39
I00
aI00
aI00
aI01
aI00
aI00
aI00
aI01
aI00
aI01
aI00
aI01
aI00
aI00
aI01
aI00
aa(lp40
I00
aI00
aI00
aI00
aI00
aI00
aI00
aI00
aI00
aI00
aI00
aI00
aI00
aI00
aI00
aI00
aa(lp41
I00
aI00
aI00
aI00
aI00
aI00
aI00
aI00
aI00
aI00
aI00
aI00
aI00
aI00
aI00
aI00
aa(lp42
I00
aI00
aI00
aI00
aI00
aI00
aI00
aI00
aI00
aI00
aI00
aI00
aI00
aI00
aI00
aI00
aa(lp43
I00
aI00
aI00
aI00
aI00
aI00
aI00
aI00
aI00
aI01
aI00
aI00
aI00
aI00
aI00
aI00
aa(lp44
I00
aI00
aI00
aI00
aI00
aI00
aI00
aI00
aI00
aI00
aI00
aI00
aI00
aI00
aI00
aI00
aa(lp45
I00
aI00
aI00
aI00
aI00
aI00
aI00
aI00
aI00
aI00
aI00
aI00
aI00
aI00
aI00
aI00
aa(lp46
I00
aI00
aI00
aI00
aI00
aI00
aI01
aI00
aI00
aI00
aI00
aI00
aI00
aI00
aI00
aI00
aa(lp47
I00
aI00
aI00
aI00
aI00
aI00
aI00
aI00
aI00
aI00
aI00
aI00
aI00
aI00
aI00
aI00
aa(lp48
I00
aI00
aI00
aI00
aI00
aI00
aI00
aI00
aI00
aI00
aI00
aI00
aI00
aI00
aI00
aI00
aa(lp49
I00
aI00
aI00
aI00
aI00
aI00
aI00
aI00
aI00
aI00
aI00
aI00
aI00
aI00
aI00
aI00
aa(lp50
I00
aI01
aI00
aI00
aI01
aI00
aI01
aI00
aI01
aI00
aI00
aI00
aI01
aI00
aI00
aI00
aa(lp51
I00
aI00
aI00
aI00
aI01
aI00
aI00
aI00
aI00
aI00
aI01
aI00
aI00
aI00
aI00
aI00
aa(lp52
I00
aI01
aI00
aI00
aI00
aI00
aI01
aI00
aI00
aI00
aI00
aI00
aI01
aI00
aI00
aI00
aa(lp53
I00
aI00
aI00
aI00
aI00
aI00
aI01
aI01
aI00
aI00
aI00
aI00
aI01
aI00
aI00
aI00
aa(lp54
I00
aI00
aI00
aI00
aI00
aI00
aI00
aI00
aI00
aI00
aI00
aI00
aI00
aI00
aI00
aI00
aa(lp55
I00
aI01
aI00
aI01
aI00
aI00
aI00
aI00
aI00
aI00
aI00
aI00
aI00
aI00
aI01
aI00
aa(lp56
I00
aI00
aI00
aI00
aI00
aI00
aI00
aI00
aI00
aI00
aI00
aI00
aI00
aI00
aI00
aI00
aa(lp57
I00
aI00
aI00
aI00
aI00
aI00
aI00
aI01
aI00
aI00
aI00
aI00
aI00
aI01
aI01
aI00
aa(lp58
I00
aI00
aI00
aI00
aI00
aI00
aI00
aI00
aI00
aI00
aI00
aI00
aI00
aI00
aI00
aI00
aa(lp59
I00
aI00
aI00
aI00
aI00
aI00
aI00
aI00
aI00
aI00
aI00
aI00
aI00
aI00
aI00
aI00
aa(lp60
I00
aI00
aI00
aI00
aI00
aI00
aI00
aI00
aI00
aI00
aI00
aI00
aI00
aI00
aI00
aI00
aasS'height'
p61
I16
sbsS'agentPositions'
p62
(lp63
(I00
(I1
I2
tp64
tp65
a(I00
(I30
I13
tp66
tp67
a(I00
(I1
I1
tp68
tp69
a(I00
(I30
I14
tp70
tp71
asg61
I16
sg26
I32
sS'walls'
p72
(igame
Grid
p73
(dp74
g25
I30
sg26
I32
sg27
(lp75
(lp76
I01
aI01
aI01
aI01
aI01
aI01
aI01
aI01
aI01
aI01
aI01
aI01
aI01
aI01
aI01
aI01
aa(lp77
I01
aI00
aI00
aI00
aI00
aI00
aI00
aI00
aI00
aI00
aI00
aI00
aI00
aI00
aI00
aI01
aa(lp78
I01
aI01
aI01
aI01
aI01
aI01
aI01
aI01
aI01
aI01
aI01
aI01
aI01
aI01
aI00
aI01
aa(lp79
I01
aI00
aI00
aI00
aI00
aI00
aI00
aI01
aI00
aI01
aI00
aI00
aI00
aI00
aI00
aI01
aa(lp80
I01
aI01
aI01
aI01
aI01
aI01
aI00
aI00
aI00
aI00
aI00
aI01
aI01
aI01
aI01
aI01
aa(lp81
I01
aI00
aI00
aI00
aI00
aI00
aI00
aI00
aI01
aI01
aI00
aI01
aI00
aI01
aI00
aI01
aa(lp82
I01
aI01
aI00
aI01
aI01
aI00
aI01
aI01
aI01
aI00
aI00
aI00
aI00
aI00
aI00
aI01
aa(lp83
I01
aI00
aI00
aI00
aI01
aI00
aI00
aI01
aI00
aI00
aI01
aI01
aI01
aI00
aI01
aI01
aa(lp84
I01
aI00
aI01
aI00
aI01
aI01
aI00
aI01
aI01
aI00
aI01
aI00
aI00
aI00
aI00
aI01
aa(lp85
I01
aI00
aI01
aI01
aI01
aI00
aI00
aI01
aI01
aI01
aI01
aI00
aI01
aI00
aI01
aI01
aa(lp86
I01
aI00
aI01
aI00
aI01
aI01
aI00
aI00
aI01
aI00
aI01
aI00
aI01
aI00
aI00
aI01
aa(lp87
I01
aI00
aI00
aI00
aI00
aI01
aI00
aI01
aI01
aI00
aI01
aI01
aI01
aI00
aI01
aI01
aa(lp88
I01
aI01
aI00
aI01
aI00
aI01
aI00
aI00
aI00
aI00
aI00
aI00
aI00
aI00
aI00
aI01
aa(lp89
I01
aI00
aI00
aI01
aI00
aI00
aI00
aI00
aI00
aI01
aI01
aI01
aI00
aI01
aI00
aI01
aa(lp90
I01
aI00
aI01
aI01
aI01
aI00
aI01
aI00
aI00
aI00
aI01
aI00
aI00
aI01
aI00
aI01
aa(lp91
I01
aI00
aI00
aI01
aI00
aI00
aI01
aI00
aI00
aI01
aI01
aI00
aI00
aI00
aI00
aI01
aa(lp92
I01
aI00
aI00
aI00
aI00
aI01
aI01
aI00
aI00
aI01
aI00
aI00
aI01
aI00
aI00
aI01
aa(lp93
I01
aI00
aI01
aI00
aI00
aI01
aI00
aI00
aI00
aI01
aI00
aI01
aI01
aI01
aI00
aI01
aa(lp94
I01
aI00
aI01
aI00
aI01
aI01
aI01
aI00
aI00
aI00
aI00
aI00
aI01
aI00
aI00
aI01
aa(lp95
I01
aI00
aI00
aI00
aI00
aI00
aI00
aI00
aI00
aI00
aI01
aI00
aI01
aI00
aI01
aI01
aa(lp96
I01
aI01
aI00
aI01
aI01
aI01
aI00
aI01
aI01
aI00
aI01
aI00
aI00
aI00
aI00
aI01
aa(lp97
I01
aI00
aI00
aI01
aI00
aI01
aI00
aI01
aI00
aI00
aI01
aI01
aI00
aI01
aI00
aI01
aa(lp98
I01
aI01
aI00
aI01
aI00
aI01
aI01
aI01
aI01
aI00
aI00
aI01
aI01
aI01
aI00
aI01
aa(lp99
I01
aI00
aI00
aI00
aI00
aI01
aI00
aI01
aI01
aI00
aI01
aI01
aI00
aI01
aI00
aI01
aa(lp100
I01
aI01
aI00
aI01
aI01
aI01
aI00
aI00
aI01
aI00
aI00
aI01
aI00
aI00
aI00
aI01
aa(lp101
I01
aI00
aI00
aI00
aI00
aI00
aI00
aI01
aI01
aI01
aI00
aI01
aI01
aI00
aI01
aI01
aa(lp102
I01
aI00
aI01
aI00
aI01
aI00
aI01
aI01
aI00
aI00
aI00
aI00
aI00
aI00
aI00
aI01
aa(lp103
I01
aI01
aI01
aI01
aI01
aI00
aI00
aI00
aI00
aI00
aI01
aI01
aI01
aI01
aI01
aI01
aa(lp104
I01
aI00
aI00
aI00
aI00
aI00
aI01
aI00
aI01
aI00
aI00
aI00
aI00
aI00
aI00
aI01
aa(lp105
I01
aI00
aI01
aI01
aI01
aI01
aI01
aI01
aI01
aI01
aI01
aI01
aI01
aI01
aI01
aI01
aa(lp106
I01
aI00
aI00
aI00
aI00
aI00
aI00
aI00
aI00
aI00
aI00
aI00
aI00
aI00
aI00
aI01
aa(lp107
I01
aI01
aI01
aI01
aI01
aI01
aI01
aI01
aI01
aI01
aI01
aI01
aI01
aI01
aI01
aI01
aasg61
I16
sbsS'layoutText'
p108
(lp109
S'%%%%%%%%%%%%%%%%%%%%%%%%%%%%%%%%'
p110
aS'%   %. %.%.%       %     %.%.%4%'
p111
aS'% % %%       %%  %   %%%   %.%2%'
p112
aS'% % %. % %%%    %%%% .%..% % % %'
p113
aS'% % %% % ..% %   %   %%%%% % % %'
p114
aS'% %    %%%%% %%%   %%%.% o % % %'
p115
aS'% %% % ..%.  %.%%%       %   % %'
p116
aS'% %. %%.%%%%        %.%%%%  %% %'
p117
aS'% %%  %%%%.%        %%%%.%% .% %'
p118
aS'% %   %       %%%.%  .%.. % %% %'
p119
aS'% % % o %.%%%   %%% %%%%%    % %'
p120
aS'% % % %%%%%   %   % %.. % %% % %'
p121
aS'% % % %..%. %%%%    %%% % .% % %'
p122
aS'%1%.%   %%%   %  %%       %% % %'
p123
aS'%3%.%.%     %       %.%.% .%   %'
p124
aS'%%%%%%%%%%%%%%%%%%%%%%%%%%%%%%%%'
p125
asbsS'actions'
p126
(lp127
(I1
S'South'
p128
tp129
a(I2
S'North'
p130
tp131
a(I3
g128
tp132
a(I0
g130
tp133
a(I1
g128
tp134
a(I2
g130
tp135
a(I3
g128
tp136
a(I0
g130
tp137
a(I1
g128
tp138
a(I2
g130
tp139
a(I3
g128
tp140
a(I0
g130
tp141
a(I1
g128
tp142
a(I2
g130
tp143
a(I3
g128
tp144
a(I0
g130
tp145
a(I1
g128
tp146
a(I2
g130
tp147
a(I3
g128
tp148
a(I0
g130
tp149
a(I1
g128
tp150
a(I2
g130
tp151
a(I3
g128
tp152
a(I0
g130
tp153
a(I1
g128
tp154
a(I2
g130
tp155
a(I3
g128
tp156
a(I0
g130
tp157
a(I1
g128
tp158
a(I2
g130
tp159
a(I3
g128
tp160
a(I0
g130
tp161
a(I1
g128
tp162
a(I2
g130
tp163
a(I3
g128
tp164
a(I0
g130
tp165
a(I1
g128
tp166
a(I2
g130
tp167
a(I3
g128
tp168
a(I0
g130
tp169
a(I1
g128
tp170
a(I2
g130
tp171
a(I3
g128
tp172
a(I0
g130
tp173
a(I1
g128
tp174
a(I2
g130
tp175
a(I3
g128
tp176
a(I0
g130
tp177
a(I1
S'West'
p178
tp179
a(I2
g130
tp180
a(I3
g128
tp181
a(I0
S'East'
p182
tp183
a(I1
g178
tp184
a(I2
g182
tp185
a(I3
g178
tp186
a(I0
g182
tp187
a(I1
g130
tp188
a(I2
g182
tp189
a(I3
g178
tp190
a(I0
g128
tp191
a(I1
g130
tp192
a(I2
g128
tp193
a(I3
g130
tp194
a(I0
g128
tp195
a(I1
g130
tp196
a(I2
g128
tp197
a(I3
g130
tp198
a(I0
g128
tp199
a(I1
g130
tp200
a(I2
g128
tp201
a(I3
g130
tp202
a(I0
g128
tp203
a(I1
g178
tp204
a(I2
g128
tp205
a(I3
g130
tp206
a(I0
g182
tp207
a(I1
g130
tp208
a(I2
g182
tp209
a(I3
g178
tp210
a(I0
g182
tp211
a(I1
g130
tp212
a(I2
g128
tp213
a(I3
g178
tp214
a(I0
g182
tp215
a(I1
g130
tp216
a(I2
g128
tp217
a(I3
g178
tp218
a(I0
g130
tp219
a(I1
g178
tp220
a(I2
g128
tp221
a(I3
g128
tp222
a(I0
g130
tp223
a(I1
g130
tp224
a(I2
g182
tp225
a(I3
g128
tp226
a(I0
g130
tp227
a(I1
g130
tp228
a(I2
g128
tp229
a(I3
g128
tp230
a(I0
g182
tp231
a(I1
g178
tp232
a(I2
g128
tp233
a(I3
g178
tp234
a(I0
g182
tp235
a(I1
g178
tp236
a(I2
g182
tp237
a(I3
g178
tp238
a(I0
g182
tp239
a(I1
g128
tp240
a(I2
g178
tp241
a(I3
g178
tp242
a(I0
g182
tp243
a(I1
g178
tp244
a(I2
g128
tp245
a(I3
g178
tp246
a(I0
g182
tp247
a(I1
g178
tp248
a(I2
g128
tp249
a(I3
g178
tp250
a(I0
g182
tp251
a(I1
g178
tp252
a(I2
g128
tp253
a(I3
g178
tp254
a(I0
g128
tp255
a(I1
g178
tp256
a(I2
g130
tp257
a(I3
g128
tp258
a(I0
g182
tp259
a(I1
g178
tp260
a(I2
g130
tp261
a(I3
g178
tp262
a(I0
g182
tp263
a(I1
g178
tp264
a(I2
g128
tp265
a(I3
g178
tp266
a(I0
g182
tp267
a(I1
g128
tp268
a(I2
g130
tp269
a(I3
g178
tp270
a(I0
g130
tp271
a(I1
g178
tp272
a(I2
g130
tp273
a(I3
g178
tp274
a(I0
g182
tp275
a(I1
g178
tp276
a(I2
g128
tp277
a(I3
g178
tp278
a(I0
g130
tp279
a(I1
g178
tp280
a(I2
g130
tp281
a(I3
g178
tp282
a(I0
g182
tp283
a(I1
g178
tp284
a(I2
g182
tp285
a(I3
g130
tp286
a(I0
g182
tp287
a(I1
g130
tp288
a(I2
g182
tp289
a(I3
g178
tp290
a(I0
g128
tp291
a(I1
g128
tp292
a(I2
g130
tp293
a(I3
g178
tp294
a(I0
g182
tp295
a(I1
g178
tp296
a(I2
g182
tp297
a(I3
g130
tp298
a(I0
g182
tp299
a(I1
g178
tp300
a(I2
g182
tp301
a(I3
g178
tp302
a(I0
g128
tp303
a(I1
g130
tp304
a(I2
g182
tp305
a(I3
g182
tp306
a(I0
g182
tp307
a(I1
g178
tp308
a(I2
g182
tp309
a(I3
g128
tp310
a(I0
g178
tp311
a(I1
g178
tp312
a(I2
g182
tp313
a(I3
g128
tp314
a(I0
g130
tp315
a(I1
g182
tp316
a(I2
g130
tp317
a(I3
g178
tp318
a(I0
g130
tp319
a(I1
g182
tp320
a(I2
g130
tp321
a(I3
g178
tp322
a(I0
g182
tp323
a(I1
g130
tp324
a(I2
g130
tp325
a(I3
g178
tp326
a(I0
g182
tp327
a(I1
g130
tp328
a(I2
g130
tp329
a(I3
g178
tp330
a(I0
g182
tp331
a(I1
g130
tp332
a(I2
g130
tp333
a(I3
g130
tp334
a(I0
g182
tp335
a(I1
g130
tp336
a(I2
g130
tp337
a(I3
g130
tp338
a(I0
g128
tp339
a(I1
g178
tp340
a(I2
g130
tp341
a(I3
g182
tp342
a(I0
g128
tp343
a(I1
g178
tp344
a(I2
g178
tp345
a(I3
g178
tp346
a(I0
g178
tp347
a(I1
g178
tp348
a(I2
g178
tp349
a(I3
g128
tp350
a(I0
g182
tp351
a(I1
g178
tp352
a(I2
g178
tp353
a(I3
g178
tp354
a(I0
g130
tp355
a(I1
g128
tp356
a(I2
g178
tp357
a(I3
g178
tp358
a(I0
g182
tp359
a(I1
g128
tp360
a(I2
g128
tp361
a(I3
g128
tp362
a(I0
g182
tp363
a(I1
g182
tp364
a(I2
g128
tp365
a(I3
g130
tp366
a(I0
g130
tp367
a(I1
g182
tp368
a(I2
g182
tp369
a(I3
g130
tp370
a(I0
g128
tp371
a(I1
g178
tp372
a(I2
g178
tp373
a(I3
g130
tp374
a(I0
g128
tp375
a(I1
g128
tp376
a(I2
g130
tp377
a(I3
g130
tp378
a(I0
g128
tp379
a(I1
g128
tp380
a(I2
g130
tp381
a(I3
g182
tp382
a(I0
g128
tp383
a(I1
g128
tp384
a(I2
g182
tp385
a(I3
g178
tp386
a(I0
g178
tp387
a(I1
g128
tp388
a(I2
g182
tp389
a(I3
g130
tp390
a(I0
g178
tp391
a(I1
g128
tp392
a(I2
g182
tp393
a(I3
g178
tp394
a(I0
g128
tp395
a(I1
g128
tp396
a(I2
g182
tp397
a(I3
g130
tp398
a(I0
g178
tp399
a(I1
g128
tp400
a(I2
g130
tp401
a(I3
g130
tp402
a(I0
g178
tp403
a(I1
g128
tp404
a(I2
g182
tp405
a(I3
g178
tp406
a(I0
g130
tp407
a(I1
g128
tp408
a(I2
g182
tp409
a(I3
g182
tp410
a(I0
g128
tp411
a(I1
g128
tp412
a(I2
g182
tp413
a(I3
g130
tp414
a(I0
g178
tp415
a(I1
g128
tp416
a(I2
g182
tp417
a(I3
g130
tp418
a(I0
g128
tp419
a(I1
g128
tp420
a(I2
g182
tp421
a(I3
g182
tp422
a(I0
g130
tp423
a(I1
g178
tp424
a(I2
g182
tp425
a(I3
g182
tp426
a(I0
g178
tp427
a(I1
g178
tp428
a(I2
g128
tp429
a(I3
g128
tp430
a(I0
g178
tp431
a(I1
g130
tp432
a(I2
g182
tp433
a(I3
g182
tp434
a(I0
g128
tp435
a(I1
g130
tp436
a(I2
g182
tp437
a(I3
g182
tp438
a(I0
g178
tp439
a(I1
g130
tp440
a(I2
g128
tp441
a(I3
g178
tp442
a(I0
g128
tp443
a(I1
g130
tp444
a(I2
g128
tp445
a(I3
g128
tp446
a(I0
g178
tp447
a(I1
g178
tp448
a(I2
g178
tp449
a(I3
g130
tp450
a(I0
g128
tp451
a(I1
g178
tp452
a(I2
g178
tp453
a(I3
g178
tp454
a(I0
g130
tp455
a(I1
g178
tp456
a(I2
g128
tp457
a(I3
g130
tp458
a(I0
g182
tp459
a(I1
g128
tp460
a(I2
g128
tp461
a(I3
g130
tp462
a(I0
g182
tp463
a(I1
g128
tp464
a(I2
g182
tp465
a(I3
g130
tp466
a(I0
g128
tp467
a(I1
g128
tp468
a(I2
g128
tp469
a(I3
g178
tp470
a(I0
g182
tp471
a(I1
g178
tp472
a(I2
g128
tp473
a(I3
g182
tp474
a(I0
g182
tp475
a(I1
g178
tp476
a(I2
g128
tp477
a(I3
g130
tp478
a(I0
g178
tp479
a(I1
g178
tp480
a(I2
g128
tp481
a(I3
g182
tp482
a(I0
g178
tp483
a(I1
g178
tp484
a(I2
g128
tp485
a(I3
g182
tp486
a(I0
g128
tp487
a(I1
g178
tp488
a(I2
g128
tp489
a(I3
g130
tp490
a(I0
g128
tp491
a(I1
g178
tp492
a(I2
g128
tp493
a(I3
g128
tp494
a(I0
g128
tp495
a(I1
g128
tp496
a(I2
g182
tp497
a(I3
g182
tp498
a(I0
g128
tp499
a(I1
g128
tp500
a(I2
g182
tp501
a(I3
g182
tp502
a(I0
g182
tp503
a(I1
g128
tp504
a(I2
g128
tp505
a(I3
g130
tp506
a(I0
g182
tp507
a(I1
g128
tp508
a(I2
g130
tp509
a(I3
g128
tp510
a(I0
g182
tp511
a(I1
g128
tp512
a(I2
g182
tp513
a(I3
g178
tp514
a(I0
g182
tp515
a(I1
g128
tp516
a(I2
g182
tp517
a(I3
g178
tp518
a(I0
g128
tp519
a(I1
g128
tp520
a(I2
g130
tp521
a(I3
g178
tp522
a(I0
g130
tp523
a(I1
g128
tp524
a(I2
g130
tp525
a(I3
g178
tp526
a(I0
g130
tp527
a(I1
g128
tp528
a(I2
g178
tp529
a(I3
g130
tp530
a(I0
g130
tp531
a(I1
g128
tp532
a(I2
g178
tp533
a(I3
g178
tp534
a(I0
g128
tp535
a(I1
g128
tp536
a(I2
g182
tp537
a(I3
g182
tp538
a(I0
g128
tp539
a(I1
g128
tp540
a(I2
g182
tp541
a(I3
g128
tp542
a(I0
g182
tp543
a(I1
g178
tp544
a(I2
g128
tp545
a(I3
g128
tp546
a(I0
g182
tp547
a(I1
g178
tp548
a(I2
g128
tp549
a(I3
g128
tp550
a(I0
g130
tp551
a(I1
g130
tp552
a(I2
g182
tp553
a(I3
g128
tp554
a(I0
g182
tp555
a(I1
g130
tp556
a(I2
g182
tp557
a(I3
g178
tp558
a(I0
g178
tp559
a(I1
g130
tp560
a(I2
g128
tp561
a(I3
g178
tp562
a(I0
g128
tp563
a(I1
g130
tp564
a(I2
g182
tp565
a(I3
g128
tp566
a(I0
g130
tp567
a(I1
g178
tp568
a(I2
g178
tp569
a(I3
g128
tp570
a(I0
g130
tp571
a(I1
g178
tp572
a(I2
g130
tp573
a(I3
g128
tp574
a(I0
g128
tp575
a(I1
g178
tp576
a(I2
S'Stop'
p577
tp578
a(I3
g128
tp579
a(I0
g128
tp580
a(I1
g128
tp581
a(I2
g178
tp582
a(I3
g178
tp583
a(I0
g178
tp584
a(I1
g128
tp585
a(I2
g178
tp586
a(I3
g128
tp587
a(I0
g178
tp588
a(I1
g128
tp589
a(I2
g128
tp590
a(I3
g128
tp591
a(I0
g178
tp592
a(I1
g178
tp593
a(I2
g577
tp594
a(I3
g128
tp595
a(I0
g178
tp596
a(I1
g178
tp597
a(I2
g577
tp598
a(I3
g128
tp599
a(I0
g128
tp600
a(I1
g178
tp601
a(I2
g577
tp602
a(I3
g128
tp603
as.