(dp1
S'agents'
p2
(lp3
(igame
Agent
p4
(dp5
S'index'
p6
I0
sba(igame
Agent
p7
(dp8
g6
I0
sba(igame
Agent
p9
(dp10
g6
I0
sba(igame
Agent
p11
(dp12
g6
I0
sbasS'length'
p13
I3000
sS'layout'
p14
(ilayout
Layout
p15
(dp16
S'capsules'
p17
(lp18
(I6
I5
tp19
a(I25
I10
tp20
asS'numGhosts'
p21
I4
sS'food'
p22
(igame
Grid
p23
(dp24
S'CELLS_PER_INT'
p25
I30
sS'width'
p26
I32
sS'data'
p27
(lp28
(lp29
I00
aI00
aI00
aI00
aI00
aI00
aI00
aI00
aI00
aI00
aI00
aI00
aI00
aI00
aI00
aI00
aa(lp30
I00
aI00
aI00
aI00
aI00
aI00
aI00
aI00
aI00
aI00
aI00
aI00
aI00
aI00
aI00
aI00
aa(lp31
I00
aI00
aI00
aI00
aI00
aI00
aI00
aI00
aI00
aI00
aI00
aI00
aI00
aI00
aI00
aI00
aa(lp32
I00
aI01
aI01
aI00
aI00
aI00
aI00
aI00
aI01
aI00
aI00
aI00
aI00
aI00
aI00
aI00
aa(lp33
I00
aI00
aI00
aI00
aI00
aI00
aI00
aI00
aI00
aI00
aI00
aI00
aI00
aI00
aI00
aI00
aa(lp34
I00
aI01
aI00
aI00
aI00
aI00
aI00
aI00
aI00
aI00
aI00
aI00
aI01
aI00
aI01
aI00
aa(lp35
I00
aI00
aI00
aI00
aI00
aI00
aI00
aI00
aI00
aI00
aI00
aI00
aI00
aI00
aI00
aI00
aa(lp36
I00
aI00
aI00
aI01
aI00
aI00
aI00
aI00
aI01
aI01
aI00
aI00
aI00
aI00
aI00
aI00
aa(lp37
I00
aI00
aI00
aI01
aI00
aI00
aI00
aI00
aI00
aI01
aI00
aI00
aI00
aI00
aI01
aI00
aa(lp38
I00
aI00
aI00
aI00
aI00
aI01
aI00
aI00
aI00
aI00
aI00
aI01
aI00
aI00
aI00
aI00
aa(lp39
I00
aI00
aI00
aI01
aI00
aI00
aI00
aI01
aI00
aI01
aI00
aI01
aI00
aI00
aI01
aI00
aa(lp40
I00
aI00
aI00
aI00
aI00
aI00
aI00
aI00
aI00
aI00
aI00
aI00
aI00
aI00
aI00
aI00
aa(lp41
I00
aI00
aI00
aI00
aI00
aI00
aI00
aI00
aI00
aI00
aI00
aI00
aI00
aI00
aI00
aI00
aa(lp42
I00
aI00
aI00
aI00
aI00
aI00
aI00
aI00
aI00
aI00
aI00
aI00
aI00
aI00
aI00
aI00
aa(lp43
I00
aI00
aI00
aI00
aI00
aI00
aI00
aI00
aI00
aI01
aI00
aI00
aI00
aI00
aI00
aI00
aa(lp44
I00
aI00
aI00
aI00
aI00
aI00
aI00
aI00
aI00
aI00
aI00
aI00
aI00
aI00
aI00
aI00
aa(lp45
I00
aI00
aI00
aI00
aI00
aI00
aI00
aI00
aI00
aI00
aI00
aI00
aI00
aI00
aI00
aI00
aa(lp46
I00
aI00
aI00
aI00
aI00
aI00
aI01
aI00
aI00
aI00
aI00
aI00
aI00
aI00
aI00
aI00
aa(lp47
I00
aI00
aI00
aI00
aI00
aI00
aI00
aI00
aI00
aI00
aI00
aI00
aI00
aI00
aI00
aI00
aa(lp48
I00
aI00
aI00
aI00
aI00
aI00
aI00
aI00
aI00
aI00
aI00
aI00
aI00
aI00
aI00
aI00
aa(lp49
I00
aI00
aI00
aI00
aI00
aI00
aI00
aI00
aI00
aI00
aI00
aI00
aI00
aI00
aI00
aI00
aa(lp50
I00
aI01
aI00
aI00
aI01
aI00
aI01
aI00
aI01
aI00
aI00
aI00
aI01
aI00
aI00
aI00
aa(lp51
I00
aI00
aI00
aI00
aI01
aI00
aI00
aI00
aI00
aI00
aI01
aI00
aI00
aI00
aI00
aI00
aa(lp52
I00
aI01
aI00
aI00
aI00
aI00
aI01
aI00
aI00
aI00
aI00
aI00
aI01
aI00
aI00
aI00
aa(lp53
I00
aI00
aI00
aI00
aI00
aI00
aI01
aI01
aI00
aI00
aI00
aI00
aI01
aI00
aI00
aI00
aa(lp54
I00
aI00
aI00
aI00
aI00
aI00
aI00
aI00
aI00
aI00
aI00
aI00
aI00
aI00
aI00
aI00
aa(lp55
I00
aI01
aI00
aI01
aI00
aI00
aI00
aI00
aI00
aI00
aI00
aI00
aI00
aI00
aI01
aI00
aa(lp56
I00
aI00
aI00
aI00
aI00
aI00
aI00
aI00
aI00
aI00
aI00
aI00
aI00
aI00
aI00
aI00
aa(lp57
I00
aI00
aI00
aI00
aI00
aI00
aI00
aI01
aI00
aI00
aI00
aI00
aI00
aI01
aI01
aI00
aa(lp58
I00
aI00
aI00
aI00
aI00
aI00
aI00
aI00
aI00
aI00
aI00
aI00
aI00
aI00
aI00
aI00
aa(lp59
I00
aI00
aI00
aI00
aI00
aI00
aI00
aI00
aI00
aI00
aI00
aI00
aI00
aI00
aI00
aI00
aa(lp60
I00
aI00
aI00
aI00
aI00
aI00
aI00
aI00
aI00
aI00
aI00
aI00
aI00
aI00
aI00
aI00
aasS'height'
p61
I16
sbsS'agentPositions'
p62
(lp63
(I00
(I1
I2
tp64
tp65
a(I00
(I30
I13
tp66
tp67
a(I00
(I1
I1
tp68
tp69
a(I00
(I30
I14
tp70
tp71
asg61
I16
sg26
I32
sS'walls'
p72
(igame
Grid
p73
(dp74
g25
I30
sg26
I32
sg27
(lp75
(lp76
I01
aI01
aI01
aI01
aI01
aI01
aI01
aI01
aI01
aI01
aI01
aI01
aI01
aI01
aI01
aI01
aa(lp77
I01
aI00
aI00
aI00
aI00
aI00
aI00
aI00
aI00
aI00
aI00
aI00
aI00
aI00
aI00
aI01
aa(lp78
I01
aI01
aI01
aI01
aI01
aI01
aI01
aI01
aI01
aI01
aI01
aI01
aI01
aI01
aI00
aI01
aa(lp79
I01
aI00
aI00
aI00
aI00
aI00
aI00
aI01
aI00
aI01
aI00
aI00
aI00
aI00
aI00
aI01
aa(lp80
I01
aI01
aI01
aI01
aI01
aI01
aI00
aI00
aI00
aI00
aI00
aI01
aI01
aI01
aI01
aI01
aa(lp81
I01
aI00
aI00
aI00
aI00
aI00
aI00
aI00
aI01
aI01
aI00
aI01
aI00
aI01
aI00
aI01
aa(lp82
I01
aI01
aI00
aI01
aI01
aI00
aI01
aI01
aI01
aI00
aI00
aI00
aI00
aI00
aI00
aI01
aa(lp83
I01
aI00
aI00
aI00
aI01
aI00
aI00
aI01
aI00
aI00
aI01
aI01
aI01
aI00
aI01
aI01
aa(lp84
I01
aI00
aI01
aI00
aI01
aI01
aI00
aI01
aI01
aI00
aI01
aI00
aI00
aI00
aI00
aI01
aa(lp85
I01
aI00
aI01
aI01
aI01
aI00
aI00
aI01
aI01
aI01
aI01
aI00
aI01
aI00
aI01
aI01
aa(lp86
I01
aI00
aI01
aI00
aI01
aI01
aI00
aI00
aI01
aI00
aI01
aI00
aI01
aI00
aI00
aI01
aa(lp87
I01
aI00
aI00
aI00
aI00
aI01
aI00
aI01
aI01
aI00
aI01
aI01
aI01
aI00
aI01
aI01
aa(lp88
I01
aI01
aI00
aI01
aI00
aI01
aI00
aI00
aI00
aI00
aI00
aI00
aI00
aI00
aI00
aI01
aa(lp89
I01
aI00
aI00
aI01
aI00
aI00
aI00
aI00
aI00
aI01
aI01
aI01
aI00
aI01
aI00
aI01
aa(lp90
I01
aI00
aI01
aI01
aI01
aI00
aI01
aI00
aI00
aI00
aI01
aI00
aI00
aI01
aI00
aI01
aa(lp91
I01
aI00
aI00
aI01
aI00
aI00
aI01
aI00
aI00
aI01
aI01
aI00
aI00
aI00
aI00
aI01
aa(lp92
I01
aI00
aI00
aI00
aI00
aI01
aI01
aI00
aI00
aI01
aI00
aI00
aI01
aI00
aI00
aI01
aa(lp93
I01
aI00
aI01
aI00
aI00
aI01
aI00
aI00
aI00
aI01
aI00
aI01
aI01
aI01
aI00
aI01
aa(lp94
I01
aI00
aI01
aI00
aI01
aI01
aI01
aI00
aI00
aI00
aI00
aI00
aI01
aI00
aI00
aI01
aa(lp95
I01
aI00
aI00
aI00
aI00
aI00
aI00
aI00
aI00
aI00
aI01
aI00
aI01
aI00
aI01
aI01
aa(lp96
I01
aI01
aI00
aI01
aI01
aI01
aI00
aI01
aI01
aI00
aI01
aI00
aI00
aI00
aI00
aI01
aa(lp97
I01
aI00
aI00
aI01
aI00
aI01
aI00
aI01
aI00
aI00
aI01
aI01
aI00
aI01
aI00
aI01
aa(lp98
I01
aI01
aI00
aI01
aI00
aI01
aI01
aI01
aI01
aI00
aI00
aI01
aI01
aI01
aI00
aI01
aa(lp99
I01
aI00
aI00
aI00
aI00
aI01
aI00
aI01
aI01
aI00
aI01
aI01
aI00
aI01
aI00
aI01
aa(lp100
I01
aI01
aI00
aI01
aI01
aI01
aI00
aI00
aI01
aI00
aI00
aI01
aI00
aI00
aI00
aI01
aa(lp101
I01
aI00
aI00
aI00
aI00
aI00
aI00
aI01
aI01
aI01
aI00
aI01
aI01
aI00
aI01
aI01
aa(lp102
I01
aI00
aI01
aI00
aI01
aI00
aI01
aI01
aI00
aI00
aI00
aI00
aI00
aI00
aI00
aI01
aa(lp103
I01
aI01
aI01
aI01
aI01
aI00
aI00
aI00
aI00
aI00
aI01
aI01
aI01
aI01
aI01
aI01
aa(lp104
I01
aI00
aI00
aI00
aI00
aI00
aI01
aI00
aI01
aI00
aI00
aI00
aI00
aI00
aI00
aI01
aa(lp105
I01
aI00
aI01
aI01
aI01
aI01
aI01
aI01
aI01
aI01
aI01
aI01
aI01
aI01
aI01
aI01
aa(lp106
I01
aI00
aI00
aI00
aI00
aI00
aI00
aI00
aI00
aI00
aI00
aI00
aI00
aI00
aI00
aI01
aa(lp107
I01
aI01
aI01
aI01
aI01
aI01
aI01
aI01
aI01
aI01
aI01
aI01
aI01
aI01
aI01
aI01
aasg61
I16
sbsS'layoutText'
p108
(lp109
S'%%%%%%%%%%%%%%%%%%%%%%%%%%%%%%%%'
p110
aS'%   %. %.%.%       %     %.%.%4%'
p111
aS'% % %%       %%  %   %%%   %.%2%'
p112
aS'% % %. % %%%    %%%% .%..% % % %'
p113
aS'% % %% % ..% %   %   %%%%% % % %'
p114
aS'% %    %%%%% %%%   %%%.% o % % %'
p115
aS'% %% % ..%.  %.%%%       %   % %'
p116
aS'% %. %%.%%%%        %.%%%%  %% %'
p117
aS'% %%  %%%%.%        %%%%.%% .% %'
p118
aS'% %   %       %%%.%  .%.. % %% %'
p119
aS'% % % o %.%%%   %%% %%%%%    % %'
p120
aS'% % % %%%%%   %   % %.. % %% % %'
p121
aS'% % % %..%. %%%%    %%% % .% % %'
p122
aS'%1%.%   %%%   %  %%       %% % %'
p123
aS'%3%.%.%     %       %.%.% .%   %'
p124
aS'%%%%%%%%%%%%%%%%%%%%%%%%%%%%%%%%'
p125
asbsS'actions'
p126
(lp127
(I1
S'South'
p128
tp129
a(I2
S'North'
p130
tp131
a(I3
g128
tp132
a(I0
g130
tp133
a(I1
g128
tp134
a(I2
g130
tp135
a(I3
g128
tp136
a(I0
g130
tp137
a(I1
g128
tp138
a(I2
g130
tp139
a(I3
g128
tp140
a(I0
g130
tp141
a(I1
g128
tp142
a(I2
g130
tp143
a(I3
g128
tp144
a(I0
g130
tp145
a(I1
g128
tp146
a(I2
g130
tp147
a(I3
g128
tp148
a(I0
g130
tp149
a(I1
g128
tp150
a(I2
g130
tp151
a(I3
g128
tp152
a(I0
g130
tp153
a(I1
g128
tp154
a(I2
g130
tp155
a(I3
g128
tp156
a(I0
g130
tp157
a(I1
g128
tp158
a(I2
g130
tp159
a(I3
g128
tp160
a(I0
g130
tp161
a(I1
g128
tp162
a(I2
g130
tp163
a(I3
g128
tp164
a(I0
g130
tp165
a(I1
g128
tp166
a(I2
g130
tp167
a(I3
g128
tp168
a(I0
g130
tp169
a(I1
g128
tp170
a(I2
g130
tp171
a(I3
g128
tp172
a(I0
g130
tp173
a(I1
g128
tp174
a(I2
g130
tp175
a(I3
g128
tp176
a(I0
g130
tp177
a(I1
S'West'
p178
tp179
a(I2
g130
tp180
a(I3
g128
tp181
a(I0
S'East'
p182
tp183
a(I1
g178
tp184
a(I2
g182
tp185
a(I3
g178
tp186
a(I0
g182
tp187
a(I1
g130
tp188
a(I2
g182
tp189
a(I3
g178
tp190
a(I0
g128
tp191
a(I1
g130
tp192
a(I2
g128
tp193
a(I3
g130
tp194
a(I0
g128
tp195
a(I1
g130
tp196
a(I2
g128
tp197
a(I3
g130
tp198
a(I0
g128
tp199
a(I1
g130
tp200
a(I2
g128
tp201
a(I3
g130
tp202
a(I0
g128
tp203
a(I1
g178
tp204
a(I2
g128
tp205
a(I3
g130
tp206
a(I0
g182
tp207
a(I1
g130
tp208
a(I2
g182
tp209
a(I3
g178
tp210
a(I0
g182
tp211
a(I1
g130
tp212
a(I2
g128
tp213
a(I3
g130
tp214
a(I0
g182
tp215
a(I1
g130
tp216
a(I2
g128
tp217
a(I3
g128
tp218
a(I0
g130
tp219
a(I1
g130
tp220
a(I2
g128
tp221
a(I3
g178
tp222
a(I0
g130
tp223
a(I1
g178
tp224
a(I2
g128
tp225
a(I3
g178
tp226
a(I0
g130
tp227
a(I1
g130
tp228
a(I2
g182
tp229
a(I3
g128
tp230
a(I0
g182
tp231
a(I1
g178
tp232
a(I2
g128
tp233
a(I3
g128
tp234
a(I0
g182
tp235
a(I1
g178
tp236
a(I2
g182
tp237
a(I3
g128
tp238
a(I0
g182
tp239
a(I1
g128
tp240
a(I2
g182
tp241
a(I3
g178
tp242
a(I0
g182
tp243
a(I1
g178
tp244
a(I2
g130
tp245
a(I3
g178
tp246
a(I0
g182
tp247
a(I1
g178
tp248
a(I2
g182
tp249
a(I3
g178
tp250
a(I0
g182
tp251
a(I1
g178
tp252
a(I2
g182
tp253
a(I3
g178
tp254
a(I0
g128
tp255
a(I1
g178
tp256
a(I2
g182
tp257
a(I3
g178
tp258
a(I0
g128
tp259
a(I1
g178
tp260
a(I2
g182
tp261
a(I3
g178
tp262
a(I0
g128
tp263
a(I1
g178
tp264
a(I2
g182
tp265
a(I3
g130
tp266
a(I0
g128
tp267
a(I1
g128
tp268
a(I2
g182
tp269
a(I3
g178
tp270
a(I0
g130
tp271
a(I1
g178
tp272
a(I2
g128
tp273
a(I3
g182
tp274
a(I0
g130
tp275
a(I1
g178
tp276
a(I2
g128
tp277
a(I3
g178
tp278
a(I0
g130
tp279
a(I1
g178
tp280
a(I2
g130
tp281
a(I3
g178
tp282
a(I0
g128
tp283
a(I1
g178
tp284
a(I2
g130
tp285
a(I3
g130
tp286
a(I0
g128
tp287
a(I1
g130
tp288
a(I2
g130
tp289
a(I3
g178
tp290
a(I0
g128
tp291
a(I1
g128
tp292
a(I2
g182
tp293
a(I3
g182
tp294
a(I0
g128
tp295
a(I1
g178
tp296
a(I2
g130
tp297
a(I3
g178
tp298
a(I0
g182
tp299
a(I1
g128
tp300
a(I2
g128
tp301
a(I3
S'Stop'
p302
tp303
a(I0
g178
tp304
a(I1
g128
tp305
a(I2
g178
tp306
a(I3
g302
tp307
a(I0
g130
tp308
a(I1
g128
tp309
a(I2
g128
tp310
a(I3
g128
tp311
a(I0
g130
tp312
a(I1
g128
tp313
a(I2
g128
tp314
a(I3
g130
tp315
a(I0
g130
tp316
a(I1
g128
tp317
a(I2
g182
tp318
a(I3
g182
tp319
a(I0
g130
tp320
a(I1
g128
tp321
a(I2
g182
tp322
a(I3
g178
tp323
a(I0
g130
tp324
a(I1
g128
tp325
a(I2
g128
tp326
a(I3
g302
tp327
a(I0
g130
tp328
a(I1
g128
tp329
a(I2
g302
tp330
a(I3
g302
tp331
a(I0
g182
tp332
a(I1
g128
tp333
a(I2
g302
tp334
a(I3
g302
tp335
a(I0
g182
tp336
a(I1
g128
tp337
a(I2
g302
tp338
a(I3
g302
tp339
a(I0
g182
tp340
a(I1
g128
tp341
a(I2
g302
tp342
a(I3
g302
tp343
a(I0
g182
tp344
a(I1
g128
tp345
a(I2
g302
tp346
a(I3
g302
tp347
a(I0
g182
tp348
a(I1
g178
tp349
a(I2
g302
tp350
a(I3
g302
tp351
a(I0
g182
tp352
a(I1
g178
tp353
a(I2
g302
tp354
a(I3
g302
tp355
a(I0
g128
tp356
a(I1
g130
tp357
a(I2
g302
tp358
a(I3
g302
tp359
a(I0
g182
tp360
a(I1
g130
tp361
a(I2
g302
tp362
a(I3
g302
tp363
a(I0
g182
tp364
a(I1
g130
tp365
a(I2
g302
tp366
a(I3
g302
tp367
a(I0
g128
tp368
a(I1
g130
tp369
a(I2
g302
tp370
a(I3
g302
tp371
a(I0
g182
tp372
a(I1
g178
tp373
a(I2
g302
tp374
a(I3
g302
tp375
a(I0
g178
tp376
a(I1
g178
tp377
a(I2
g302
tp378
a(I3
g302
tp379
a(I0
g130
tp380
a(I1
g178
tp381
a(I2
g302
tp382
a(I3
g302
tp383
a(I0
g130
tp384
a(I1
g128
tp385
a(I2
g302
tp386
a(I3
g302
tp387
a(I0
g182
tp388
a(I1
g128
tp389
a(I2
g302
tp390
a(I3
g302
tp391
a(I0
g182
tp392
a(I1
g128
tp393
a(I2
g302
tp394
a(I3
g302
tp395
a(I0
g182
tp396
a(I1
g178
tp397
a(I2
g302
tp398
a(I3
g302
tp399
a(I0
g182
tp400
a(I1
g178
tp401
a(I2
g302
tp402
a(I3
g302
tp403
a(I0
g128
tp404
a(I1
g178
tp405
a(I2
g302
tp406
a(I3
g302
tp407
a(I0
g128
tp408
a(I1
g178
tp409
a(I2
g302
tp410
a(I3
g302
tp411
a(I0
g178
tp412
a(I1
g178
tp413
a(I2
g302
tp414
a(I3
g302
tp415
a(I0
g182
tp416
a(I1
g178
tp417
a(I2
g302
tp418
a(I3
g302
tp419
a(I0
g130
tp420
a(I1
g128
tp421
a(I2
g302
tp422
a(I3
g302
tp423
a(I0
g182
tp424
a(I1
g178
tp425
a(I2
g302
tp426
a(I3
g302
tp427
a(I0
g182
tp428
a(I1
g178
tp429
a(I2
g302
tp430
a(I3
g302
tp431
a(I0
g130
tp432
a(I1
g178
tp433
a(I2
g130
tp434
a(I3
g182
tp435
a(I0
g128
tp436
a(I1
g178
tp437
a(I2
g178
tp438
a(I3
g178
tp439
a(I0
g128
tp440
a(I1
g178
tp441
a(I2
g178
tp442
a(I3
g182
tp443
a(I0
g128
tp444
a(I1
g178
tp445
a(I2
g128
tp446
a(I3
g178
tp447
a(I0
g128
tp448
a(I1
g130
tp449
a(I2
g178
tp450
a(I3
g128
tp451
a(I0
g178
tp452
a(I1
g178
tp453
a(I2
g178
tp454
a(I3
g130
tp455
a(I0
g178
tp456
a(I1
g178
tp457
a(I2
g128
tp458
a(I3
g302
tp459
a(I0
g128
tp460
a(I1
g128
tp461
a(I2
g128
tp462
a(I3
g128
tp463
a(I0
g178
tp464
a(I1
g178
tp465
a(I2
g128
tp466
a(I3
g128
tp467
a(I0
g178
tp468
a(I1
g178
tp469
a(I2
g178
tp470
a(I3
g128
tp471
a(I0
g130
tp472
a(I1
g178
tp473
a(I2
g178
tp474
a(I3
g302
tp475
a(I0
g128
tp476
a(I1
g178
tp477
a(I2
g178
tp478
a(I3
g130
tp479
a(I0
g178
tp480
a(I1
g130
tp481
a(I2
g178
tp482
a(I3
g128
tp483
a(I0
g128
tp484
a(I1
g130
tp485
a(I2
g130
tp486
a(I3
g182
tp487
a(I0
g130
tp488
a(I1
g182
tp489
a(I2
g130
tp490
a(I3
g182
tp491
a(I0
g178
tp492
a(I1
g302
tp493
a(I2
g182
tp494
a(I3
g182
tp495
a(I0
g178
tp496
a(I1
g128
tp497
a(I2
g178
tp498
a(I3
g130
tp499
a(I0
g128
tp500
a(I1
g128
tp501
a(I2
g128
tp502
a(I3
g130
tp503
a(I0
g128
tp504
a(I1
g128
tp505
a(I2
g128
tp506
a(I3
g130
tp507
a(I0
g128
tp508
a(I1
g128
tp509
a(I2
g182
tp510
a(I3
g130
tp511
a(I0
g182
tp512
a(I1
g128
tp513
a(I2
g182
tp514
a(I3
g130
tp515
a(I0
g182
tp516
a(I1
g128
tp517
a(I2
g182
tp518
a(I3
g182
tp519
a(I0
g178
tp520
a(I1
g128
tp521
a(I2
g182
tp522
a(I3
g128
tp523
a(I0
g178
tp524
a(I1
g128
tp525
a(I2
g130
tp526
a(I3
g128
tp527
a(I0
g130
tp528
a(I1
g128
tp529
a(I2
g182
tp530
a(I3
g128
tp531
a(I0
g178
tp532
a(I1
g128
tp533
a(I2
g182
tp534
a(I3
g128
tp535
a(I0
g178
tp536
a(I1
g128
tp537
a(I2
g128
tp538
a(I3
g128
tp539
a(I0
g128
tp540
a(I1
g128
tp541
a(I2
g182
tp542
a(I3
g128
tp543
a(I0
g130
tp544
a(I1
g178
tp545
a(I2
g182
tp546
a(I3
g128
tp547
a(I0
g182
tp548
a(I1
g178
tp549
a(I2
g302
tp550
a(I3
g128
tp551
a(I0
g182
tp552
a(I1
g130
tp553
a(I2
g302
tp554
a(I3
g128
tp555
a(I0
g128
tp556
a(I1
g130
tp557
a(I2
g302
tp558
a(I3
g128
tp559
a(I0
g128
tp560
a(I1
g130
tp561
a(I2
g302
tp562
a(I3
g128
tp563
a(I0
g128
tp564
a(I1
g130
tp565
a(I2
g302
tp566
a(I3
g128
tp567
a(I0
g128
tp568
a(I1
g178
tp569
a(I2
g302
tp570
a(I3
g128
tp571
a(I0
g128
tp572
a(I1
g130
tp573
a(I2
g302
tp574
a(I3
g178
tp575
a(I0
g182
tp576
a(I1
g130
tp577
a(I2
g302
tp578
a(I3
g178
tp579
a(I0
g182
tp580
a(I1
g130
tp581
a(I2
g302
tp582
a(I3
g130
tp583
a(I0
g128
tp584
a(I1
g178
tp585
a(I2
g178
tp586
a(I3
g130
tp587
a(I0
g130
tp588
a(I1
g130
tp589
a(I2
g178
tp590
a(I3
g130
tp591
a(I0
g182
tp592
a(I1
g130
tp593
a(I2
g130
tp594
a(I3
g130
tp595
a(I0
g182
tp596
a(I1
g178
tp597
a(I2
g178
tp598
a(I3
g178
tp599
a(I0
g128
tp600
a(I1
g178
tp601
a(I2
g178
tp602
a(I3
g178
tp603
a(I0
g130
tp604
a(I1
g128
tp605
a(I2
g130
tp606
a(I3
g178
tp607
a(I0
g130
tp608
a(I1
g178
tp609
a(I2
g128
tp610
a(I3
g128
tp611
a(I0
g130
tp612
a(I1
g178
tp613
a(I2
g182
tp614
a(I3
g128
tp615
a(I0
g178
tp616
a(I1
g178
tp617
a(I2
g182
tp618
a(I3
g128
tp619
a(I0
g178
tp620
a(I1
g178
tp621
a(I2
g128
tp622
a(I3
g178
tp623
a(I0
g182
tp624
a(I1
g178
tp625
a(I2
g182
tp626
a(I3
g178
tp627
a(I0
g182
tp628
a(I1
g178
tp629
a(I2
g182
tp630
a(I3
g130
tp631
a(I0
g128
tp632
a(I1
g130
tp633
a(I2
g302
tp634
a(I3
g128
tp635
a(I0
g130
tp636
a(I1
g178
tp637
a(I2
g302
tp638
a(I3
g178
tp639
a(I0
g130
tp640
a(I1
g178
tp641
a(I2
g302
tp642
a(I3
g178
tp643
a(I0
g130
tp644
a(I1
g130
tp645
a(I2
g302
tp646
a(I3
g178
tp647
a(I0
g130
tp648
a(I1
g178
tp649
a(I2
g178
tp650
a(I3
g178
tp651
a(I0
g130
tp652
a(I1
g178
tp653
a(I2
g178
tp654
a(I3
g128
tp655
a(I0
g130
tp656
a(I1
g130
tp657
a(I2
g130
tp658
a(I3
g178
tp659
a(I0
g130
tp660
a(I1
g178
tp661
a(I2
g178
tp662
a(I3
g178
tp663
a(I0
g130
tp664
a(I1
g178
tp665
a(I2
g178
tp666
a(I3
g178
tp667
a(I0
g130
tp668
a(I1
g130
tp669
a(I2
g130
tp670
a(I3
g130
tp671
a(I0
g130
tp672
a(I1
g178
tp673
a(I2
g130
tp674
a(I3
g128
tp675
a(I0
g130
tp676
a(I1
g178
tp677
a(I2
g182
tp678
a(I3
g182
tp679
a(I0
g130
tp680
a(I1
g130
tp681
a(I2
g182
tp682
a(I3
g178
tp683
a(I0
g182
tp684
a(I1
g128
tp685
a(I2
g130
tp686
a(I3
g182
tp687
a(I0
g182
tp688
a(I1
g178
tp689
a(I2
g130
tp690
a(I3
g178
tp691
a(I0
g128
tp692
a(I1
g178
tp693
a(I2
g178
tp694
a(I3
g130
tp695
a(I0
g128
tp696
a(I1
g130
tp697
a(I2
g130
tp698
a(I3
g128
tp699
a(I0
g128
tp700
a(I1
g128
tp701
a(I2
g130
tp702
a(I3
g130
tp703
a(I0
g128
tp704
a(I1
g128
tp705
a(I2
g130
tp706
a(I3
g128
tp707
a(I0
g182
tp708
a(I1
g128
tp709
a(I2
g130
tp710
a(I3
g130
tp711
a(I0
g182
tp712
a(I1
g182
tp713
a(I2
g130
tp714
a(I3
g130
tp715
a(I0
g182
tp716
a(I1
g182
tp717
a(I2
g130
tp718
a(I3
g130
tp719
a(I0
g130
tp720
a(I1
g178
tp721
a(I2
g130
tp722
a(I3
g302
tp723
a(I0
g130
tp724
a(I1
g178
tp725
a(I2
g178
tp726
a(I3
g128
tp727
a(I0
g130
tp728
a(I1
g130
tp729
a(I2
g178
tp730
a(I3
g130
tp731
a(I0
g182
tp732
a(I1
g130
tp733
a(I2
g178
tp734
a(I3
g182
tp735
a(I0
g182
tp736
a(I1
g128
tp737
a(I2
g182
tp738
a(I3
g178
tp739
a(I0
g182
tp740
a(I1
g128
tp741
a(I2
g182
tp742
a(I3
g182
tp743
a(I0
g182
tp744
a(I1
g128
tp745
a(I2
g182
tp746
a(I3
g178
tp747
a(I0
g182
tp748
a(I1
g128
tp749
a(I2
g128
tp750
a(I3
g128
tp751
a(I0
g182
tp752
a(I1
g128
tp753
a(I2
g128
tp754
a(I3
g130
tp755
a(I0
g130
tp756
a(I1
g128
tp757
a(I2
g128
tp758
a(I3
g128
tp759
a(I0
g182
tp760
a(I1
g128
tp761
a(I2
g128
tp762
a(I3
g130
tp763
a(I0
g182
tp764
a(I1
g128
tp765
a(I2
g128
tp766
a(I3
g128
tp767
a(I0
g182
tp768
a(I1
g128
tp769
a(I2
g128
tp770
a(I3
g130
tp771
a(I0
g182
tp772
a(I1
g128
tp773
a(I2
g182
tp774
a(I3
g128
tp775
a(I0
g182
tp776
a(I1
g128
tp777
a(I2
g130
tp778
a(I3
g130
tp779
a(I0
g182
tp780
a(I1
g128
tp781
a(I2
g182
tp782
a(I3
g182
tp783
a(I0
g128
tp784
a(I1
g178
tp785
a(I2
g182
tp786
a(I3
g128
tp787
a(I0
g182
tp788
a(I1
g178
tp789
a(I2
g128
tp790
a(I3
g182
tp791
a(I0
g182
tp792
a(I1
g130
tp793
a(I2
g178
tp794
a(I3
g182
tp795
a(I0
g130
tp796
a(I1
g130
tp797
a(I2
g178
tp798
a(I3
g130
tp799
a(I0
g182
tp800
a(I1
g130
tp801
a(I2
g128
tp802
a(I3
g130
tp803
a(I0
g182
tp804
a(I1
g130
tp805
a(I2
g128
tp806
a(I3
g130
tp807
a(I0
g182
tp808
a(I1
g178
tp809
a(I2
g128
tp810
a(I3
g130
tp811
a(I0
g182
tp812
a(I1
g178
tp813
a(I2
g130
tp814
a(I3
g178
tp815
a(I0
g128
tp816
a(I1
g178
tp817
a(I2
g130
tp818
a(I3
g130
tp819
a(I0
g182
tp820
a(I1
g128
tp821
a(I2
g130
tp822
a(I3
g130
tp823
a(I0
g182
tp824
a(I1
g128
tp825
a(I2
g182
tp826
a(I3
g130
tp827
a(I0
g128
tp828
a(I1
g128
tp829
a(I2
g182
tp830
a(I3
g178
tp831
a(I0
g128
tp832
a(I1
g178
tp833
a(I2
g178
tp834
a(I3
g182
tp835
a(I0
g128
tp836
a(I1
g178
tp837
a(I2
g178
tp838
a(I3
g128
tp839
a(I0
g128
tp840
a(I1
g178
tp841
a(I2
g130
tp842
a(I3
g128
tp843
a(I0
g182
tp844
a(I1
g178
tp845
a(I2
g182
tp846
a(I3
g178
tp847
a(I0
g128
tp848
a(I1
g178
tp849
a(I2
g182
tp850
a(I3
g178
tp851
a(I0
g128
tp852
a(I1
g178
tp853
a(I2
g302
tp854
a(I3
g302
tp855
a(I0
g182
tp856
a(I1
g128
tp857
a(I2
g302
tp858
a(I3
g302
tp859
a(I0
g178
tp860
a(I1
g178
tp861
a(I2
g302
tp862
a(I3
g302
tp863
a(I0
g128
tp864
a(I1
g178
tp865
a(I2
g302
tp866
a(I3
g302
tp867
a(I0
g128
tp868
a(I1
g178
tp869
a(I2
g302
tp870
a(I3
g302
tp871
a(I0
g178
tp872
a(I1
g178
tp873
a(I2
g128
tp874
a(I3
g128
tp875
a(I0
g178
tp876
a(I1
g178
tp877
a(I2
g178
tp878
a(I3
g302
tp879
a(I0
g130
tp880
a(I1
g178
tp881
a(I2
g178
tp882
a(I3
g130
tp883
a(I0
g178
tp884
a(I1
g130
tp885
a(I2
g128
tp886
a(I3
g128
tp887
a(I0
g130
tp888
a(I1
g178
tp889
a(I2
g128
tp890
a(I3
g130
tp891
a(I0
g128
tp892
a(I1
g178
tp893
a(I2
g128
tp894
a(I3
g128
tp895
a(I0
g178
tp896
a(I1
g128
tp897
a(I2
g178
tp898
a(I3
g130
tp899
a(I0
g182
tp900
a(I1
g178
tp901
a(I2
g178
tp902
a(I3
g128
tp903
a(I0
g182
tp904
a(I1
g178
tp905
a(I2
g128
tp906
a(I3
g302
tp907
a(I0
g128
tp908
a(I1
g178
tp909
a(I2
g128
tp910
a(I3
g182
tp911
a(I0
g128
tp912
a(I1
g178
tp913
a(I2
g128
tp914
a(I3
g178
tp915
a(I0
g128
tp916
a(I1
g130
tp917
a(I2
g178
tp918
a(I3
g302
tp919
a(I0
g182
tp920
a(I1
g178
tp921
a(I2
g178
tp922
a(I3
g302
tp923
a(I0
g178
tp924
a(I1
g178
tp925
a(I2
g178
tp926
a(I3
g130
tp927
a(I0
g128
tp928
a(I1
g128
tp929
a(I2
g178
tp930
a(I3
g128
tp931
a(I0
g128
tp932
a(I1
g130
tp933
a(I2
g130
tp934
a(I3
g182
tp935
a(I0
g182
tp936
as.