(dp1
S'agents'
p2
(lp3
(igame
Agent
p4
(dp5
S'index'
p6
I0
sba(igame
Agent
p7
(dp8
g6
I0
sba(igame
Agent
p9
(dp10
g6
I0
sba(igame
Agent
p11
(dp12
g6
I0
sbasS'length'
p13
I3000
sS'layout'
p14
(ilayout
Layout
p15
(dp16
S'capsules'
p17
(lp18
(I6
I5
tp19
a(I25
I10
tp20
asS'numGhosts'
p21
I4
sS'food'
p22
(igame
Grid
p23
(dp24
S'CELLS_PER_INT'
p25
I30
sS'width'
p26
I32
sS'data'
p27
(lp28
(lp29
I00
aI00
aI00
aI00
aI00
aI00
aI00
aI00
aI00
aI00
aI00
aI00
aI00
aI00
aI00
aI00
aa(lp30
I00
aI00
aI00
aI00
aI00
aI00
aI00
aI00
aI00
aI00
aI00
aI00
aI00
aI00
aI00
aI00
aa(lp31
I00
aI00
aI00
aI00
aI00
aI00
aI00
aI00
aI00
aI00
aI00
aI00
aI00
aI00
aI00
aI00
aa(lp32
I00
aI01
aI01
aI00
aI00
aI00
aI00
aI00
aI01
aI00
aI00
aI00
aI00
aI00
aI00
aI00
aa(lp33
I00
aI00
aI00
aI00
aI00
aI00
aI00
aI00
aI00
aI00
aI00
aI00
aI00
aI00
aI00
aI00
aa(lp34
I00
aI01
aI00
aI00
aI00
aI00
aI00
aI00
aI00
aI00
aI00
aI00
aI01
aI00
aI01
aI00
aa(lp35
I00
aI00
aI00
aI00
aI00
aI00
aI00
aI00
aI00
aI00
aI00
aI00
aI00
aI00
aI00
aI00
aa(lp36
I00
aI00
aI00
aI01
aI00
aI00
aI00
aI00
aI01
aI01
aI00
aI00
aI00
aI00
aI00
aI00
aa(lp37
I00
aI00
aI00
aI01
aI00
aI00
aI00
aI00
aI00
aI01
aI00
aI00
aI00
aI00
aI01
aI00
aa(lp38
I00
aI00
aI00
aI00
aI00
aI01
aI00
aI00
aI00
aI00
aI00
aI01
aI00
aI00
aI00
aI00
aa(lp39
I00
aI00
aI00
aI01
aI00
aI00
aI00
aI01
aI00
aI01
aI00
aI01
aI00
aI00
aI01
aI00
aa(lp40
I00
aI00
aI00
aI00
aI00
aI00
aI00
aI00
aI00
aI00
aI00
aI00
aI00
aI00
aI00
aI00
aa(lp41
I00
aI00
aI00
aI00
aI00
aI00
aI00
aI00
aI00
aI00
aI00
aI00
aI00
aI00
aI00
aI00
aa(lp42
I00
aI00
aI00
aI00
aI00
aI00
aI00
aI00
aI00
aI00
aI00
aI00
aI00
aI00
aI00
aI00
aa(lp43
I00
aI00
aI00
aI00
aI00
aI00
aI00
aI00
aI00
aI01
aI00
aI00
aI00
aI00
aI00
aI00
aa(lp44
I00
aI00
aI00
aI00
aI00
aI00
aI00
aI00
aI00
aI00
aI00
aI00
aI00
aI00
aI00
aI00
aa(lp45
I00
aI00
aI00
aI00
aI00
aI00
aI00
aI00
aI00
aI00
aI00
aI00
aI00
aI00
aI00
aI00
aa(lp46
I00
aI00
aI00
aI00
aI00
aI00
aI01
aI00
aI00
aI00
aI00
aI00
aI00
aI00
aI00
aI00
aa(lp47
I00
aI00
aI00
aI00
aI00
aI00
aI00
aI00
aI00
aI00
aI00
aI00
aI00
aI00
aI00
aI00
aa(lp48
I00
aI00
aI00
aI00
aI00
aI00
aI00
aI00
aI00
aI00
aI00
aI00
aI00
aI00
aI00
aI00
aa(lp49
I00
aI00
aI00
aI00
aI00
aI00
aI00
aI00
aI00
aI00
aI00
aI00
aI00
aI00
aI00
aI00
aa(lp50
I00
aI01
aI00
aI00
aI01
aI00
aI01
aI00
aI01
aI00
aI00
aI00
aI01
aI00
aI00
aI00
aa(lp51
I00
aI00
aI00
aI00
aI01
aI00
aI00
aI00
aI00
aI00
aI01
aI00
aI00
aI00
aI00
aI00
aa(lp52
I00
aI01
aI00
aI00
aI00
aI00
aI01
aI00
aI00
aI00
aI00
aI00
aI01
aI00
aI00
aI00
aa(lp53
I00
aI00
aI00
aI00
aI00
aI00
aI01
aI01
aI00
aI00
aI00
aI00
aI01
aI00
aI00
aI00
aa(lp54
I00
aI00
aI00
aI00
aI00
aI00
aI00
aI00
aI00
aI00
aI00
aI00
aI00
aI00
aI00
aI00
aa(lp55
I00
aI01
aI00
aI01
aI00
aI00
aI00
aI00
aI00
aI00
aI00
aI00
aI00
aI00
aI01
aI00
aa(lp56
I00
aI00
aI00
aI00
aI00
aI00
aI00
aI00
aI00
aI00
aI00
aI00
aI00
aI00
aI00
aI00
aa(lp57
I00
aI00
aI00
aI00
aI00
aI00
aI00
aI01
aI00
aI00
aI00
aI00
aI00
aI01
aI01
aI00
aa(lp58
I00
aI00
aI00
aI00
aI00
aI00
aI00
aI00
aI00
aI00
aI00
aI00
aI00
aI00
aI00
aI00
aa(lp59
I00
aI00
aI00
aI00
aI00
aI00
aI00
aI00
aI00
aI00
aI00
aI00
aI00
aI00
aI00
aI00
aa(lp60
I00
aI00
aI00
aI00
aI00
aI00
aI00
aI00
aI00
aI00
aI00
aI00
aI00
aI00
aI00
aI00
aasS'height'
p61
I16
sbsS'agentPositions'
p62
(lp63
(I00
(I1
I2
tp64
tp65
a(I00
(I30
I13
tp66
tp67
a(I00
(I1
I1
tp68
tp69
a(I00
(I30
I14
tp70
tp71
asg61
I16
sg26
I32
sS'walls'
p72
(igame
Grid
p73
(dp74
g25
I30
sg26
I32
sg27
(lp75
(lp76
I01
aI01
aI01
aI01
aI01
aI01
aI01
aI01
aI01
aI01
aI01
aI01
aI01
aI01
aI01
aI01
aa(lp77
I01
aI00
aI00
aI00
aI00
aI00
aI00
aI00
aI00
aI00
aI00
aI00
aI00
aI00
aI00
aI01
aa(lp78
I01
aI01
aI01
aI01
aI01
aI01
aI01
aI01
aI01
aI01
aI01
aI01
aI01
aI01
aI00
aI01
aa(lp79
I01
aI00
aI00
aI00
aI00
aI00
aI00
aI01
aI00
aI01
aI00
aI00
aI00
aI00
aI00
aI01
aa(lp80
I01
aI01
aI01
aI01
aI01
aI01
aI00
aI00
aI00
aI00
aI00
aI01
aI01
aI01
aI01
aI01
aa(lp81
I01
aI00
aI00
aI00
aI00
aI00
aI00
aI00
aI01
aI01
aI00
aI01
aI00
aI01
aI00
aI01
aa(lp82
I01
aI01
aI00
aI01
aI01
aI00
aI01
aI01
aI01
aI00
aI00
aI00
aI00
aI00
aI00
aI01
aa(lp83
I01
aI00
aI00
aI00
aI01
aI00
aI00
aI01
aI00
aI00
aI01
aI01
aI01
aI00
aI01
aI01
aa(lp84
I01
aI00
aI01
aI00
aI01
aI01
aI00
aI01
aI01
aI00
aI01
aI00
aI00
aI00
aI00
aI01
aa(lp85
I01
aI00
aI01
aI01
aI01
aI00
aI00
aI01
aI01
aI01
aI01
aI00
aI01
aI00
aI01
aI01
aa(lp86
I01
aI00
aI01
aI00
aI01
aI01
aI00
aI00
aI01
aI00
aI01
aI00
aI01
aI00
aI00
aI01
aa(lp87
I01
aI00
aI00
aI00
aI00
aI01
aI00
aI01
aI01
aI00
aI01
aI01
aI01
aI00
aI01
aI01
aa(lp88
I01
aI01
aI00
aI01
aI00
aI01
aI00
aI00
aI00
aI00
aI00
aI00
aI00
aI00
aI00
aI01
aa(lp89
I01
aI00
aI00
aI01
aI00
aI00
aI00
aI00
aI00
aI01
aI01
aI01
aI00
aI01
aI00
aI01
aa(lp90
I01
aI00
aI01
aI01
aI01
aI00
aI01
aI00
aI00
aI00
aI01
aI00
aI00
aI01
aI00
aI01
aa(lp91
I01
aI00
aI00
aI01
aI00
aI00
aI01
aI00
aI00
aI01
aI01
aI00
aI00
aI00
aI00
aI01
aa(lp92
I01
aI00
aI00
aI00
aI00
aI01
aI01
aI00
aI00
aI01
aI00
aI00
aI01
aI00
aI00
aI01
aa(lp93
I01
aI00
aI01
aI00
aI00
aI01
aI00
aI00
aI00
aI01
aI00
aI01
aI01
aI01
aI00
aI01
aa(lp94
I01
aI00
aI01
aI00
aI01
aI01
aI01
aI00
aI00
aI00
aI00
aI00
aI01
aI00
aI00
aI01
aa(lp95
I01
aI00
aI00
aI00
aI00
aI00
aI00
aI00
aI00
aI00
aI01
aI00
aI01
aI00
aI01
aI01
aa(lp96
I01
aI01
aI00
aI01
aI01
aI01
aI00
aI01
aI01
aI00
aI01
aI00
aI00
aI00
aI00
aI01
aa(lp97
I01
aI00
aI00
aI01
aI00
aI01
aI00
aI01
aI00
aI00
aI01
aI01
aI00
aI01
aI00
aI01
aa(lp98
I01
aI01
aI00
aI01
aI00
aI01
aI01
aI01
aI01
aI00
aI00
aI01
aI01
aI01
aI00
aI01
aa(lp99
I01
aI00
aI00
aI00
aI00
aI01
aI00
aI01
aI01
aI00
aI01
aI01
aI00
aI01
aI00
aI01
aa(lp100
I01
aI01
aI00
aI01
aI01
aI01
aI00
aI00
aI01
aI00
aI00
aI01
aI00
aI00
aI00
aI01
aa(lp101
I01
aI00
aI00
aI00
aI00
aI00
aI00
aI01
aI01
aI01
aI00
aI01
aI01
aI00
aI01
aI01
aa(lp102
I01
aI00
aI01
aI00
aI01
aI00
aI01
aI01
aI00
aI00
aI00
aI00
aI00
aI00
aI00
aI01
aa(lp103
I01
aI01
aI01
aI01
aI01
aI00
aI00
aI00
aI00
aI00
aI01
aI01
aI01
aI01
aI01
aI01
aa(lp104
I01
aI00
aI00
aI00
aI00
aI00
aI01
aI00
aI01
aI00
aI00
aI00
aI00
aI00
aI00
aI01
aa(lp105
I01
aI00
aI01
aI01
aI01
aI01
aI01
aI01
aI01
aI01
aI01
aI01
aI01
aI01
aI01
aI01
aa(lp106
I01
aI00
aI00
aI00
aI00
aI00
aI00
aI00
aI00
aI00
aI00
aI00
aI00
aI00
aI00
aI01
aa(lp107
I01
aI01
aI01
aI01
aI01
aI01
aI01
aI01
aI01
aI01
aI01
aI01
aI01
aI01
aI01
aI01
aasg61
I16
sbsS'layoutText'
p108
(lp109
S'%%%%%%%%%%%%%%%%%%%%%%%%%%%%%%%%'
p110
aS'%   %. %.%.%       %     %.%.%4%'
p111
aS'% % %%       %%  %   %%%   %.%2%'
p112
aS'% % %. % %%%    %%%% .%..% % % %'
p113
aS'% % %% % ..% %   %   %%%%% % % %'
p114
aS'% %    %%%%% %%%   %%%.% o % % %'
p115
aS'% %% % ..%.  %.%%%       %   % %'
p116
aS'% %. %%.%%%%        %.%%%%  %% %'
p117
aS'% %%  %%%%.%        %%%%.%% .% %'
p118
aS'% %   %       %%%.%  .%.. % %% %'
p119
aS'% % % o %.%%%   %%% %%%%%    % %'
p120
aS'% % % %%%%%   %   % %.. % %% % %'
p121
aS'% % % %..%. %%%%    %%% % .% % %'
p122
aS'%1%.%   %%%   %  %%       %% % %'
p123
aS'%3%.%.%     %       %.%.% .%   %'
p124
aS'%%%%%%%%%%%%%%%%%%%%%%%%%%%%%%%%'
p125
asbsS'actions'
p126
(lp127
(I1
S'South'
p128
tp129
a(I2
S'North'
p130
tp131
a(I3
g128
tp132
a(I0
g130
tp133
a(I1
g128
tp134
a(I2
g130
tp135
a(I3
g128
tp136
a(I0
g130
tp137
a(I1
g128
tp138
a(I2
g130
tp139
a(I3
g128
tp140
a(I0
g130
tp141
a(I1
g128
tp142
a(I2
g130
tp143
a(I3
g128
tp144
a(I0
g130
tp145
a(I1
g128
tp146
a(I2
g130
tp147
a(I3
g128
tp148
a(I0
g130
tp149
a(I1
g128
tp150
a(I2
g130
tp151
a(I3
g128
tp152
a(I0
g130
tp153
a(I1
g128
tp154
a(I2
g130
tp155
a(I3
g128
tp156
a(I0
g130
tp157
a(I1
g128
tp158
a(I2
g130
tp159
a(I3
g128
tp160
a(I0
g130
tp161
a(I1
g128
tp162
a(I2
g130
tp163
a(I3
g128
tp164
a(I0
g130
tp165
a(I1
g128
tp166
a(I2
g130
tp167
a(I3
g128
tp168
a(I0
g130
tp169
a(I1
g128
tp170
a(I2
g130
tp171
a(I3
g128
tp172
a(I0
g130
tp173
a(I1
g128
tp174
a(I2
g130
tp175
a(I3
g128
tp176
a(I0
g130
tp177
a(I1
S'West'
p178
tp179
a(I2
g130
tp180
a(I3
g128
tp181
a(I0
S'East'
p182
tp183
a(I1
g178
tp184
a(I2
g182
tp185
a(I3
g178
tp186
a(I0
g182
tp187
a(I1
g130
tp188
a(I2
g182
tp189
a(I3
g178
tp190
a(I0
g128
tp191
a(I1
g130
tp192
a(I2
g128
tp193
a(I3
g130
tp194
a(I0
g128
tp195
a(I1
g130
tp196
a(I2
g128
tp197
a(I3
g130
tp198
a(I0
g128
tp199
a(I1
g130
tp200
a(I2
g128
tp201
a(I3
g130
tp202
a(I0
g128
tp203
a(I1
g178
tp204
a(I2
g128
tp205
a(I3
g130
tp206
a(I0
g182
tp207
a(I1
g130
tp208
a(I2
g182
tp209
a(I3
g178
tp210
a(I0
g182
tp211
a(I1
g130
tp212
a(I2
g128
tp213
a(I3
g178
tp214
a(I0
g182
tp215
a(I1
g130
tp216
a(I2
g128
tp217
a(I3
g178
tp218
a(I0
g130
tp219
a(I1
g130
tp220
a(I2
g128
tp221
a(I3
g128
tp222
a(I0
g130
tp223
a(I1
g178
tp224
a(I2
g182
tp225
a(I3
g128
tp226
a(I0
g130
tp227
a(I1
g130
tp228
a(I2
g128
tp229
a(I3
g128
tp230
a(I0
g182
tp231
a(I1
g178
tp232
a(I2
g128
tp233
a(I3
g178
tp234
a(I0
g182
tp235
a(I1
g178
tp236
a(I2
g182
tp237
a(I3
g178
tp238
a(I0
g182
tp239
a(I1
g128
tp240
a(I2
g182
tp241
a(I3
g178
tp242
a(I0
g182
tp243
a(I1
g178
tp244
a(I2
g130
tp245
a(I3
g178
tp246
a(I0
g182
tp247
a(I1
g178
tp248
a(I2
g182
tp249
a(I3
g178
tp250
a(I0
g182
tp251
a(I1
g178
tp252
a(I2
g182
tp253
a(I3
g178
tp254
a(I0
g128
tp255
a(I1
g178
tp256
a(I2
g182
tp257
a(I3
g130
tp258
a(I0
g128
tp259
a(I1
g178
tp260
a(I2
g182
tp261
a(I3
g178
tp262
a(I0
g128
tp263
a(I1
g178
tp264
a(I2
g182
tp265
a(I3
g178
tp266
a(I0
g128
tp267
a(I1
g128
tp268
a(I2
g130
tp269
a(I3
g178
tp270
a(I0
g128
tp271
a(I1
g178
tp272
a(I2
g130
tp273
a(I3
g130
tp274
a(I0
g130
tp275
a(I1
g178
tp276
a(I2
g182
tp277
a(I3
g128
tp278
a(I0
g130
tp279
a(I1
g178
tp280
a(I2
g182
tp281
a(I3
g130
tp282
a(I0
g128
tp283
a(I1
g128
tp284
a(I2
g128
tp285
a(I3
S'Stop'
p286
tp287
a(I0
g128
tp288
a(I1
g130
tp289
a(I2
g130
tp290
a(I3
g182
tp291
a(I0
g182
tp292
a(I1
g286
tp293
a(I2
g182
tp294
a(I3
g178
tp295
a(I0
g178
tp296
a(I1
g128
tp297
a(I2
g178
tp298
a(I3
g286
tp299
a(I0
g130
tp300
a(I1
g128
tp301
a(I2
g178
tp302
a(I3
g286
tp303
a(I0
g130
tp304
a(I1
g128
tp305
a(I2
g128
tp306
a(I3
g182
tp307
a(I0
g130
tp308
a(I1
g128
tp309
a(I2
g128
tp310
a(I3
g178
tp311
a(I0
g130
tp312
a(I1
g128
tp313
a(I2
g128
tp314
a(I3
g128
tp315
a(I0
g182
tp316
a(I1
g128
tp317
a(I2
g128
tp318
a(I3
g130
tp319
a(I0
g182
tp320
a(I1
g128
tp321
a(I2
g130
tp322
a(I3
g182
tp323
a(I0
g182
tp324
a(I1
g128
tp325
a(I2
g182
tp326
a(I3
g178
tp327
a(I0
g130
tp328
a(I1
g128
tp329
a(I2
g182
tp330
a(I3
g182
tp331
a(I0
g182
tp332
a(I1
g128
tp333
a(I2
g128
tp334
a(I3
g178
tp335
a(I0
g130
tp336
a(I1
g128
tp337
a(I2
g286
tp338
a(I3
g286
tp339
a(I0
g182
tp340
a(I1
g128
tp341
a(I2
g286
tp342
a(I3
g286
tp343
a(I0
g182
tp344
a(I1
g178
tp345
a(I2
g286
tp346
a(I3
g286
tp347
a(I0
g128
tp348
a(I1
g178
tp349
a(I2
g286
tp350
a(I3
g286
tp351
a(I0
g182
tp352
a(I1
g130
tp353
a(I2
g286
tp354
a(I3
g286
tp355
a(I0
g182
tp356
a(I1
g130
tp357
a(I2
g286
tp358
a(I3
g286
tp359
a(I0
g128
tp360
a(I1
g130
tp361
a(I2
g286
tp362
a(I3
g286
tp363
a(I0
g182
tp364
a(I1
g130
tp365
a(I2
g286
tp366
a(I3
g286
tp367
a(I0
g178
tp368
a(I1
g178
tp369
a(I2
g286
tp370
a(I3
g286
tp371
a(I0
g130
tp372
a(I1
g130
tp373
a(I2
g286
tp374
a(I3
g286
tp375
a(I0
g130
tp376
a(I1
g130
tp377
a(I2
g286
tp378
a(I3
g286
tp379
a(I0
g182
tp380
a(I1
g130
tp381
a(I2
g286
tp382
a(I3
g286
tp383
a(I0
g182
tp384
a(I1
g130
tp385
a(I2
g286
tp386
a(I3
g286
tp387
a(I0
g182
tp388
a(I1
g178
tp389
a(I2
g286
tp390
a(I3
g286
tp391
a(I0
g182
tp392
a(I1
g130
tp393
a(I2
g286
tp394
a(I3
g286
tp395
a(I0
g128
tp396
a(I1
g130
tp397
a(I2
g286
tp398
a(I3
g286
tp399
a(I0
g128
tp400
a(I1
g130
tp401
a(I2
g286
tp402
a(I3
g286
tp403
a(I0
g130
tp404
a(I1
g130
tp405
a(I2
g286
tp406
a(I3
g286
tp407
a(I0
g130
tp408
a(I1
g178
tp409
a(I2
g286
tp410
a(I3
g286
tp411
a(I0
g178
tp412
a(I1
g178
tp413
a(I2
g286
tp414
a(I3
g286
tp415
a(I0
g178
tp416
a(I1
g130
tp417
a(I2
g286
tp418
a(I3
g286
tp419
a(I0
g178
tp420
a(I1
g178
tp421
a(I2
g286
tp422
a(I3
g286
tp423
a(I0
g178
tp424
a(I1
g178
tp425
a(I2
g286
tp426
a(I3
g286
tp427
a(I0
g128
tp428
a(I1
g178
tp429
a(I2
g286
tp430
a(I3
g286
tp431
a(I0
g128
tp432
a(I1
g178
tp433
a(I2
g286
tp434
a(I3
g286
tp435
a(I0
g128
tp436
a(I1
g128
tp437
a(I2
g286
tp438
a(I3
g286
tp439
a(I0
g178
tp440
a(I1
g128
tp441
a(I2
g286
tp442
a(I3
g286
tp443
a(I0
g178
tp444
a(I1
g128
tp445
a(I2
g286
tp446
a(I3
g286
tp447
a(I0
g128
tp448
a(I1
g178
tp449
a(I2
g286
tp450
a(I3
g286
tp451
a(I0
g128
tp452
a(I1
g178
tp453
a(I2
g286
tp454
a(I3
g286
tp455
a(I0
g128
tp456
a(I1
g128
tp457
a(I2
g286
tp458
a(I3
g286
tp459
a(I0
g178
tp460
a(I1
g128
tp461
a(I2
g286
tp462
a(I3
g286
tp463
a(I0
g128
tp464
a(I1
g128
tp465
a(I2
g286
tp466
a(I3
g286
tp467
a(I0
g286
tp468
a(I1
g178
tp469
a(I2
g286
tp470
a(I3
g286
tp471
a(I0
g178
tp472
a(I1
g178
tp473
a(I2
g286
tp474
a(I3
g286
tp475
a(I0
g182
tp476
a(I1
g182
tp477
a(I2
g286
tp478
a(I3
g286
tp479
a(I0
g178
tp480
a(I1
g178
tp481
a(I2
g286
tp482
a(I3
g286
tp483
a(I0
g182
tp484
a(I1
g182
tp485
a(I2
g286
tp486
a(I3
g286
tp487
a(I0
g178
tp488
a(I1
g178
tp489
a(I2
g286
tp490
a(I3
g286
tp491
a(I0
g182
tp492
a(I1
g182
tp493
a(I2
g286
tp494
a(I3
g286
tp495
a(I0
g178
tp496
a(I1
g178
tp497
a(I2
g286
tp498
a(I3
g286
tp499
a(I0
g182
tp500
a(I1
g128
tp501
a(I2
g286
tp502
a(I3
g286
tp503
a(I0
g130
tp504
a(I1
g182
tp505
a(I2
g286
tp506
a(I3
g286
tp507
a(I0
g178
tp508
a(I1
g178
tp509
a(I2
g286
tp510
a(I3
g286
tp511
a(I0
g182
tp512
a(I1
g182
tp513
a(I2
g286
tp514
a(I3
g286
tp515
a(I0
g178
tp516
a(I1
g178
tp517
a(I2
g286
tp518
a(I3
g286
tp519
a(I0
g182
tp520
a(I1
g130
tp521
a(I2
g286
tp522
a(I3
g286
tp523
a(I0
g128
tp524
a(I1
g182
tp525
a(I2
g286
tp526
a(I3
g286
tp527
a(I0
g178
tp528
a(I1
g128
tp529
a(I2
g286
tp530
a(I3
g286
tp531
a(I0
g130
tp532
a(I1
g130
tp533
a(I2
g286
tp534
a(I3
g286
tp535
a(I0
g128
tp536
a(I1
g128
tp537
a(I2
g286
tp538
a(I3
g286
tp539
a(I0
g130
tp540
a(I1
g130
tp541
a(I2
g286
tp542
a(I3
g286
tp543
a(I0
g128
tp544
a(I1
g178
tp545
a(I2
g286
tp546
a(I3
g286
tp547
a(I0
g182
tp548
a(I1
g182
tp549
a(I2
g286
tp550
a(I3
g286
tp551
a(I0
g178
tp552
a(I1
g178
tp553
a(I2
g286
tp554
a(I3
g286
tp555
a(I0
g182
tp556
a(I1
g182
tp557
a(I2
g286
tp558
a(I3
g286
tp559
a(I0
g178
tp560
a(I1
g128
tp561
a(I2
g286
tp562
a(I3
g286
tp563
a(I0
g130
tp564
a(I1
g130
tp565
a(I2
g286
tp566
a(I3
g286
tp567
a(I0
g128
tp568
a(I1
g178
tp569
a(I2
g286
tp570
a(I3
g286
tp571
a(I0
g182
tp572
a(I1
g182
tp573
a(I2
g286
tp574
a(I3
g286
tp575
a(I0
g178
tp576
a(I1
g178
tp577
a(I2
g286
tp578
a(I3
g286
tp579
a(I0
g182
tp580
a(I1
g128
tp581
a(I2
g286
tp582
a(I3
g286
tp583
a(I0
g130
tp584
a(I1
g182
tp585
a(I2
g286
tp586
a(I3
g286
tp587
a(I0
g178
tp588
a(I1
g130
tp589
a(I2
g286
tp590
a(I3
g286
tp591
a(I0
g128
tp592
a(I1
g128
tp593
a(I2
g286
tp594
a(I3
g286
tp595
a(I0
g130
tp596
a(I1
g130
tp597
a(I2
g286
tp598
a(I3
g286
tp599
a(I0
g128
tp600
a(I1
g178
tp601
a(I2
g286
tp602
a(I3
g286
tp603
a(I0
g182
tp604
a(I1
g128
tp605
a(I2
g286
tp606
a(I3
g286
tp607
a(I0
g130
tp608
a(I1
g182
tp609
a(I2
g286
tp610
a(I3
g286
tp611
a(I0
g178
tp612
a(I1
g130
tp613
a(I2
g286
tp614
a(I3
g286
tp615
a(I0
g128
tp616
a(I1
g178
tp617
a(I2
g286
tp618
a(I3
g286
tp619
a(I0
g182
tp620
a(I1
g182
tp621
a(I2
g286
tp622
a(I3
g286
tp623
a(I0
g178
tp624
a(I1
g178
tp625
a(I2
g286
tp626
a(I3
g286
tp627
a(I0
g182
tp628
a(I1
g128
tp629
a(I2
g286
tp630
a(I3
g286
tp631
a(I0
g130
tp632
a(I1
g182
tp633
a(I2
g286
tp634
a(I3
g286
tp635
a(I0
g178
tp636
a(I1
g130
tp637
a(I2
g286
tp638
a(I3
g286
tp639
a(I0
g128
tp640
a(I1
g128
tp641
a(I2
g286
tp642
a(I3
g286
tp643
a(I0
g130
tp644
a(I1
g130
tp645
a(I2
g286
tp646
a(I3
g286
tp647
a(I0
g128
tp648
a(I1
g178
tp649
a(I2
g286
tp650
a(I3
g286
tp651
a(I0
g182
tp652
a(I1
g182
tp653
a(I2
g286
tp654
a(I3
g286
tp655
a(I0
g178
tp656
a(I1
g178
tp657
a(I2
g286
tp658
a(I3
g286
tp659
a(I0
g182
tp660
a(I1
g128
tp661
a(I2
g286
tp662
a(I3
g286
tp663
a(I0
g130
tp664
a(I1
g182
tp665
a(I2
g286
tp666
a(I3
g286
tp667
a(I0
g178
tp668
a(I1
g178
tp669
a(I2
g286
tp670
a(I3
g286
tp671
a(I0
g182
tp672
a(I1
g130
tp673
a(I2
g286
tp674
a(I3
g286
tp675
a(I0
g128
tp676
a(I1
g128
tp677
a(I2
g286
tp678
a(I3
g286
tp679
a(I0
g130
tp680
a(I1
g130
tp681
a(I2
g286
tp682
a(I3
g286
tp683
a(I0
g128
tp684
a(I1
g128
tp685
a(I2
g286
tp686
a(I3
g286
tp687
a(I0
g130
tp688
a(I1
g182
tp689
a(I2
g286
tp690
a(I3
g286
tp691
a(I0
g178
tp692
a(I1
g178
tp693
a(I2
g286
tp694
a(I3
g286
tp695
a(I0
g182
tp696
a(I1
g130
tp697
a(I2
g286
tp698
a(I3
g286
tp699
a(I0
g128
tp700
a(I1
g182
tp701
a(I2
g286
tp702
a(I3
g286
tp703
a(I0
g178
tp704
a(I1
g178
tp705
a(I2
g286
tp706
a(I3
g286
tp707
a(I0
g182
tp708
a(I1
g128
tp709
a(I2
g286
tp710
a(I3
g286
tp711
a(I0
g130
tp712
a(I1
g182
tp713
a(I2
g286
tp714
a(I3
g286
tp715
a(I0
g178
tp716
a(I1
g130
tp717
a(I2
g286
tp718
a(I3
g286
tp719
a(I0
g128
tp720
a(I1
g178
tp721
a(I2
g286
tp722
a(I3
g286
tp723
a(I0
g182
tp724
a(I1
g182
tp725
a(I2
g286
tp726
a(I3
g286
tp727
a(I0
g178
tp728
a(I1
g178
tp729
a(I2
g286
tp730
a(I3
g286
tp731
a(I0
g182
tp732
a(I1
g128
tp733
a(I2
g286
tp734
a(I3
g286
tp735
a(I0
g130
tp736
a(I1
g182
tp737
a(I2
g286
tp738
a(I3
g286
tp739
a(I0
g178
tp740
a(I1
g178
tp741
a(I2
g286
tp742
a(I3
g286
tp743
a(I0
g182
tp744
a(I1
g130
tp745
a(I2
g286
tp746
a(I3
g286
tp747
a(I0
g128
tp748
a(I1
g128
tp749
a(I2
g286
tp750
a(I3
g286
tp751
a(I0
g130
tp752
a(I1
g182
tp753
a(I2
g286
tp754
a(I3
g286
tp755
a(I0
g178
tp756
a(I1
g178
tp757
a(I2
g286
tp758
a(I3
g286
tp759
a(I0
g182
tp760
a(I1
g182
tp761
a(I2
g286
tp762
a(I3
g286
tp763
a(I0
g178
tp764
a(I1
g130
tp765
a(I2
g286
tp766
a(I3
g286
tp767
a(I0
g128
tp768
a(I1
g178
tp769
a(I2
g286
tp770
a(I3
g286
tp771
a(I0
g182
tp772
a(I1
g128
tp773
a(I2
g286
tp774
a(I3
g286
tp775
a(I0
g130
tp776
a(I1
g130
tp777
a(I2
g286
tp778
a(I3
g286
tp779
a(I0
g128
tp780
a(I1
g182
tp781
a(I2
g286
tp782
a(I3
g286
tp783
a(I0
g178
tp784
a(I1
g128
tp785
a(I2
g286
tp786
a(I3
g286
tp787
a(I0
g130
tp788
a(I1
g130
tp789
a(I2
g286
tp790
a(I3
g286
tp791
a(I0
g128
tp792
a(I1
g128
tp793
a(I2
g286
tp794
a(I3
g286
tp795
a(I0
g130
tp796
a(I1
g178
tp797
a(I2
g286
tp798
a(I3
g286
tp799
a(I0
g182
tp800
a(I1
g130
tp801
a(I2
g286
tp802
a(I3
g286
tp803
a(I0
g128
tp804
a(I1
g182
tp805
a(I2
g286
tp806
a(I3
g286
tp807
a(I0
g178
tp808
a(I1
g128
tp809
a(I2
g286
tp810
a(I3
g286
tp811
a(I0
g130
tp812
a(I1
g178
tp813
a(I2
g286
tp814
a(I3
g286
tp815
a(I0
g182
tp816
a(I1
g182
tp817
a(I2
g286
tp818
a(I3
g286
tp819
a(I0
g178
tp820
a(I1
g178
tp821
a(I2
g286
tp822
a(I3
g286
tp823
a(I0
g182
tp824
a(I1
g182
tp825
a(I2
g286
tp826
a(I3
g286
tp827
a(I0
g178
tp828
a(I1
g130
tp829
a(I2
g286
tp830
a(I3
g286
tp831
a(I0
g128
tp832
a(I1
g178
tp833
a(I2
g286
tp834
a(I3
g286
tp835
a(I0
g182
tp836
a(I1
g182
tp837
a(I2
g286
tp838
a(I3
g286
tp839
a(I0
g178
tp840
a(I1
g178
tp841
a(I2
g286
tp842
a(I3
g286
tp843
a(I0
g182
tp844
a(I1
g182
tp845
a(I2
g286
tp846
a(I3
g286
tp847
a(I0
g178
tp848
a(I1
g178
tp849
a(I2
g286
tp850
a(I3
g286
tp851
a(I0
g182
tp852
a(I1
g182
tp853
a(I2
g286
tp854
a(I3
g286
tp855
a(I0
g178
tp856
a(I1
g128
tp857
a(I2
g286
tp858
a(I3
g286
tp859
a(I0
g130
tp860
a(I1
g130
tp861
a(I2
g286
tp862
a(I3
g286
tp863
a(I0
g128
tp864
a(I1
g178
tp865
a(I2
g286
tp866
a(I3
g286
tp867
a(I0
g182
tp868
a(I1
g128
tp869
a(I2
g286
tp870
a(I3
g286
tp871
a(I0
g130
tp872
a(I1
g182
tp873
a(I2
g286
tp874
a(I3
g286
tp875
a(I0
g178
tp876
a(I1
g178
tp877
a(I2
g286
tp878
a(I3
g286
tp879
a(I0
g182
tp880
a(I1
g182
tp881
a(I2
g286
tp882
a(I3
g286
tp883
a(I0
g178
tp884
a(I1
g130
tp885
a(I2
g286
tp886
a(I3
g286
tp887
a(I0
g128
tp888
a(I1
g178
tp889
a(I2
g286
tp890
a(I3
g286
tp891
a(I0
g182
tp892
a(I1
g128
tp893
a(I2
g286
tp894
a(I3
g286
tp895
a(I0
g130
tp896
a(I1
g182
tp897
a(I2
g286
tp898
a(I3
g286
tp899
a(I0
g178
tp900
a(I1
g178
tp901
a(I2
g286
tp902
a(I3
g286
tp903
a(I0
g182
tp904
a(I1
g130
tp905
a(I2
g286
tp906
a(I3
g286
tp907
a(I0
g128
tp908
a(I1
g182
tp909
a(I2
g286
tp910
a(I3
g286
tp911
a(I0
g178
tp912
a(I1
g178
tp913
a(I2
g286
tp914
a(I3
g286
tp915
a(I0
g182
tp916
a(I1
g128
tp917
a(I2
g286
tp918
a(I3
g286
tp919
a(I0
g130
tp920
a(I1
g182
tp921
a(I2
g286
tp922
a(I3
g286
tp923
a(I0
g178
tp924
a(I1
g130
tp925
a(I2
g286
tp926
a(I3
g286
tp927
a(I0
g128
tp928
a(I1
g178
tp929
a(I2
g286
tp930
a(I3
g286
tp931
a(I0
g182
tp932
a(I1
g128
tp933
a(I2
g286
tp934
a(I3
g286
tp935
a(I0
g130
tp936
a(I1
g130
tp937
a(I2
g286
tp938
a(I3
g286
tp939
a(I0
g128
tp940
a(I1
g182
tp941
a(I2
g286
tp942
a(I3
g286
tp943
a(I0
g178
tp944
a(I1
g128
tp945
a(I2
g286
tp946
a(I3
g286
tp947
a(I0
g130
tp948
a(I1
g130
tp949
a(I2
g286
tp950
a(I3
g286
tp951
a(I0
g128
tp952
a(I1
g178
tp953
a(I2
g286
tp954
a(I3
g286
tp955
a(I0
g182
tp956
a(I1
g182
tp957
a(I2
g286
tp958
a(I3
g286
tp959
a(I0
g178
tp960
a(I1
g178
tp961
a(I2
g286
tp962
a(I3
g286
tp963
a(I0
g182
tp964
a(I1
g182
tp965
a(I2
g286
tp966
a(I3
g286
tp967
a(I0
g178
tp968
a(I1
g128
tp969
a(I2
g286
tp970
a(I3
g286
tp971
a(I0
g130
tp972
a(I1
g130
tp973
a(I2
g286
tp974
a(I3
g286
tp975
a(I0
g128
tp976
a(I1
g128
tp977
a(I2
g286
tp978
a(I3
g286
tp979
a(I0
g130
tp980
a(I1
g130
tp981
a(I2
g286
tp982
a(I3
g286
tp983
a(I0
g128
tp984
a(I1
g178
tp985
a(I2
g286
tp986
a(I3
g286
tp987
a(I0
g182
tp988
a(I1
g128
tp989
a(I2
g286
tp990
a(I3
g286
tp991
a(I0
g130
tp992
a(I1
g182
tp993
a(I2
g286
tp994
a(I3
g286
tp995
a(I0
g178
tp996
a(I1
g178
tp997
a(I2
g286
tp998
a(I3
g286
tp999
a(I0
g182
tp1000
a(I1
g182
tp1001
a(I2
g286
tp1002
a(I3
g286
tp1003
a(I0
g178
tp1004
a(I1
g130
tp1005
a(I2
g286
tp1006
a(I3
g286
tp1007
a(I0
g128
tp1008
a(I1
g128
tp1009
a(I2
g286
tp1010
a(I3
g286
tp1011
a(I0
g130
tp1012
a(I1
g178
tp1013
a(I2
g286
tp1014
a(I3
g286
tp1015
a(I0
g182
tp1016
a(I1
g182
tp1017
a(I2
g286
tp1018
a(I3
g286
tp1019
a(I0
g178
tp1020
a(I1
g130
tp1021
a(I2
g286
tp1022
a(I3
g286
tp1023
a(I0
g128
tp1024
a(I1
g128
tp1025
a(I2
g286
tp1026
a(I3
g286
tp1027
a(I0
g130
tp1028
a(I1
g178
tp1029
a(I2
g286
tp1030
a(I3
g286
tp1031
a(I0
g182
tp1032
a(I1
g130
tp1033
a(I2
g286
tp1034
a(I3
g286
tp1035
a(I0
g128
tp1036
a(I1
g182
tp1037
a(I2
g286
tp1038
a(I3
g286
tp1039
a(I0
g178
tp1040
a(I1
g128
tp1041
a(I2
g286
tp1042
a(I3
g286
tp1043
a(I0
g130
tp1044
a(I1
g130
tp1045
a(I2
g286
tp1046
a(I3
g286
tp1047
a(I0
g128
tp1048
a(I1
g128
tp1049
a(I2
g286
tp1050
a(I3
g286
tp1051
a(I0
g130
tp1052
a(I1
g178
tp1053
a(I2
g286
tp1054
a(I3
g286
tp1055
a(I0
g182
tp1056
a(I1
g130
tp1057
a(I2
g286
tp1058
a(I3
g286
tp1059
a(I0
g128
tp1060
a(I1
g182
tp1061
a(I2
g286
tp1062
a(I3
g286
tp1063
a(I0
g178
tp1064
a(I1
g178
tp1065
a(I2
g286
tp1066
a(I3
g286
tp1067
a(I0
g182
tp1068
a(I1
g182
tp1069
a(I2
g286
tp1070
a(I3
g286
tp1071
a(I0
g178
tp1072
a(I1
g128
tp1073
a(I2
g286
tp1074
a(I3
g286
tp1075
a(I0
g130
tp1076
a(I1
g130
tp1077
a(I2
g286
tp1078
a(I3
g286
tp1079
a(I0
g128
tp1080
a(I1
g178
tp1081
a(I2
g286
tp1082
a(I3
g286
tp1083
a(I0
g182
tp1084
a(I1
g182
tp1085
a(I2
g286
tp1086
a(I3
g286
tp1087
a(I0
g178
tp1088
a(I1
g178
tp1089
a(I2
g286
tp1090
a(I3
g286
tp1091
a(I0
g182
tp1092
a(I1
g128
tp1093
a(I2
g286
tp1094
a(I3
g286
tp1095
a(I0
g130
tp1096
a(I1
g182
tp1097
a(I2
g286
tp1098
a(I3
g286
tp1099
a(I0
g178
tp1100
a(I1
g130
tp1101
a(I2
g286
tp1102
a(I3
g286
tp1103
a(I0
g128
tp1104
a(I1
g128
tp1105
a(I2
g286
tp1106
a(I3
g286
tp1107
a(I0
g130
tp1108
a(I1
g130
tp1109
a(I2
g286
tp1110
a(I3
g286
tp1111
a(I0
g128
tp1112
a(I1
g128
tp1113
a(I2
g286
tp1114
a(I3
g286
tp1115
a(I0
g130
tp1116
a(I1
g130
tp1117
a(I2
g286
tp1118
a(I3
g286
tp1119
a(I0
g128
tp1120
a(I1
g178
tp1121
a(I2
g286
tp1122
a(I3
g286
tp1123
a(I0
g182
tp1124
a(I1
g182
tp1125
a(I2
g286
tp1126
a(I3
g286
tp1127
a(I0
g178
tp1128
a(I1
g128
tp1129
a(I2
g286
tp1130
a(I3
g286
tp1131
a(I0
g130
tp1132
a(I1
g178
tp1133
a(I2
g286
tp1134
a(I3
g286
tp1135
a(I0
g182
tp1136
a(I1
g182
tp1137
a(I2
g286
tp1138
a(I3
g286
tp1139
a(I0
g178
tp1140
a(I1
g130
tp1141
a(I2
g286
tp1142
a(I3
g286
tp1143
a(I0
g128
tp1144
a(I1
g178
tp1145
a(I2
g286
tp1146
a(I3
g286
tp1147
a(I0
g182
tp1148
a(I1
g128
tp1149
a(I2
g286
tp1150
a(I3
g286
tp1151
a(I0
g130
tp1152
a(I1
g182
tp1153
a(I2
g286
tp1154
a(I3
g286
tp1155
a(I0
g178
tp1156
a(I1
g178
tp1157
a(I2
g286
tp1158
a(I3
g286
tp1159
a(I0
g182
tp1160
a(I1
g130
tp1161
a(I2
g286
tp1162
a(I3
g286
tp1163
a(I0
g128
tp1164
a(I1
g128
tp1165
a(I2
g286
tp1166
a(I3
g286
tp1167
a(I0
g130
tp1168
a(I1
g130
tp1169
a(I2
g286
tp1170
a(I3
g286
tp1171
a(I0
g128
tp1172
a(I1
g182
tp1173
a(I2
g286
tp1174
a(I3
g286
tp1175
a(I0
g178
tp1176
a(I1
g178
tp1177
a(I2
g286
tp1178
a(I3
g286
tp1179
a(I0
g182
tp1180
a(I1
g128
tp1181
a(I2
g286
tp1182
a(I3
g286
tp1183
a(I0
g130
tp1184
a(I1
g182
tp1185
a(I2
g286
tp1186
a(I3
g286
tp1187
a(I0
g178
tp1188
a(I1
g130
tp1189
a(I2
g286
tp1190
a(I3
g286
tp1191
a(I0
g128
tp1192
a(I1
g128
tp1193
a(I2
g286
tp1194
a(I3
g286
tp1195
a(I0
g130
tp1196
a(I1
g130
tp1197
a(I2
g286
tp1198
a(I3
g286
tp1199
a(I0
g128
tp1200
a(I1
g128
tp1201
a(I2
g286
tp1202
a(I3
g286
tp1203
a(I0
g130
tp1204
a(I1
g178
tp1205
a(I2
g286
tp1206
a(I3
g286
tp1207
a(I0
g182
tp1208
a(I1
g130
tp1209
a(I2
g286
tp1210
a(I3
g286
tp1211
a(I0
g128
tp1212
a(I1
g182
tp1213
a(I2
g286
tp1214
a(I3
g286
tp1215
a(I0
g178
tp1216
a(I1
g178
tp1217
a(I2
g286
tp1218
a(I3
g286
tp1219
a(I0
g182
tp1220
a(I1
g128
tp1221
a(I2
g286
tp1222
a(I3
g286
tp1223
a(I0
g130
tp1224
a(I1
g182
tp1225
a(I2
g286
tp1226
a(I3
g286
tp1227
a(I0
g178
tp1228
a(I1
g178
tp1229
a(I2
g286
tp1230
a(I3
g286
tp1231
a(I0
g182
tp1232
a(I1
g182
tp1233
a(I2
g286
tp1234
a(I3
g286
tp1235
a(I0
g178
tp1236
a(I1
g130
tp1237
a(I2
g286
tp1238
a(I3
g286
tp1239
a(I0
g128
tp1240
a(I1
g128
tp1241
a(I2
g286
tp1242
a(I3
g286
tp1243
a(I0
g130
tp1244
a(I1
g130
tp1245
a(I2
g286
tp1246
a(I3
g286
tp1247
a(I0
g128
tp1248
a(I1
g128
tp1249
a(I2
g286
tp1250
a(I3
g286
tp1251
a(I0
g130
tp1252
a(I1
g130
tp1253
a(I2
g286
tp1254
a(I3
g286
tp1255
a(I0
g128
tp1256
a(I1
g128
tp1257
a(I2
g286
tp1258
a(I3
g286
tp1259
a(I0
g130
tp1260
a(I1
g130
tp1261
a(I2
g286
tp1262
a(I3
g286
tp1263
a(I0
g128
tp1264
a(I1
g128
tp1265
a(I2
g286
tp1266
a(I3
g286
tp1267
a(I0
g130
tp1268
a(I1
g130
tp1269
a(I2
g286
tp1270
a(I3
g286
tp1271
a(I0
g128
tp1272
a(I1
g178
tp1273
a(I2
g286
tp1274
a(I3
g286
tp1275
a(I0
g182
tp1276
a(I1
g128
tp1277
a(I2
g286
tp1278
a(I3
g286
tp1279
a(I0
g130
tp1280
a(I1
g182
tp1281
a(I2
g286
tp1282
a(I3
g286
tp1283
a(I0
g178
tp1284
a(I1
g178
tp1285
a(I2
g286
tp1286
a(I3
g286
tp1287
a(I0
g182
tp1288
a(I1
g182
tp1289
a(I2
g286
tp1290
a(I3
g286
tp1291
a(I0
g178
tp1292
a(I1
g130
tp1293
a(I2
g286
tp1294
a(I3
g286
tp1295
a(I0
g128
tp1296
a(I1
g128
tp1297
a(I2
g286
tp1298
a(I3
g286
tp1299
a(I0
g130
tp1300
a(I1
g130
tp1301
a(I2
g286
tp1302
a(I3
g286
tp1303
a(I0
g128
tp1304
a(I1
g128
tp1305
a(I2
g286
tp1306
a(I3
g286
tp1307
a(I0
g130
tp1308
a(I1
g178
tp1309
a(I2
g286
tp1310
a(I3
g286
tp1311
a(I0
g182
tp1312
a(I1
g182
tp1313
a(I2
g286
tp1314
a(I3
g286
tp1315
a(I0
g178
tp1316
a(I1
g178
tp1317
a(I2
g286
tp1318
a(I3
g286
tp1319
a(I0
g182
tp1320
a(I1
g182
tp1321
a(I2
g286
tp1322
a(I3
g286
tp1323
a(I0
g178
tp1324
a(I1
g178
tp1325
a(I2
g286
tp1326
a(I3
g286
tp1327
a(I0
g182
tp1328
a(I1
g182
tp1329
a(I2
g286
tp1330
a(I3
g286
tp1331
a(I0
g178
tp1332
a(I1
g130
tp1333
a(I2
g286
tp1334
a(I3
g286
tp1335
a(I0
g128
tp1336
a(I1
g128
tp1337
a(I2
g286
tp1338
a(I3
g286
tp1339
a(I0
g130
tp1340
a(I1
g130
tp1341
a(I2
g286
tp1342
a(I3
g286
tp1343
a(I0
g128
tp1344
a(I1
g128
tp1345
a(I2
g286
tp1346
a(I3
g286
tp1347
a(I0
g130
tp1348
a(I1
g130
tp1349
a(I2
g286
tp1350
a(I3
g286
tp1351
a(I0
g128
tp1352
a(I1
g178
tp1353
a(I2
g286
tp1354
a(I3
g286
tp1355
a(I0
g182
tp1356
a(I1
g182
tp1357
a(I2
g286
tp1358
a(I3
g286
tp1359
a(I0
g178
tp1360
a(I1
g178
tp1361
a(I2
g286
tp1362
a(I3
g286
tp1363
a(I0
g182
tp1364
a(I1
g128
tp1365
a(I2
g286
tp1366
a(I3
g286
tp1367
a(I0
g130
tp1368
a(I1
g130
tp1369
a(I2
g286
tp1370
a(I3
g286
tp1371
a(I0
g128
tp1372
a(I1
g128
tp1373
a(I2
g286
tp1374
a(I3
g286
tp1375
a(I0
g130
tp1376
a(I1
g130
tp1377
a(I2
g286
tp1378
a(I3
g286
tp1379
a(I0
g128
tp1380
a(I1
g182
tp1381
a(I2
g286
tp1382
a(I3
g286
tp1383
a(I0
g178
tp1384
a(I1
g128
tp1385
a(I2
g286
tp1386
a(I3
g286
tp1387
a(I0
g130
tp1388
a(I1
g130
tp1389
a(I2
g286
tp1390
a(I3
g286
tp1391
a(I0
g128
tp1392
a(I1
g128
tp1393
a(I2
g286
tp1394
a(I3
g286
tp1395
a(I0
g130
tp1396
a(I1
g130
tp1397
a(I2
g286
tp1398
a(I3
g286
tp1399
a(I0
g128
tp1400
a(I1
g178
tp1401
a(I2
g286
tp1402
a(I3
g286
tp1403
a(I0
g182
tp1404
a(I1
g182
tp1405
a(I2
g286
tp1406
a(I3
g286
tp1407
a(I0
g178
tp1408
a(I1
g128
tp1409
a(I2
g286
tp1410
a(I3
g286
tp1411
a(I0
g130
tp1412
a(I1
g130
tp1413
a(I2
g286
tp1414
a(I3
g286
tp1415
a(I0
g128
tp1416
a(I1
g178
tp1417
a(I2
g286
tp1418
a(I3
g286
tp1419
a(I0
g182
tp1420
a(I1
g128
tp1421
a(I2
g286
tp1422
a(I3
g286
tp1423
a(I0
g130
tp1424
a(I1
g182
tp1425
a(I2
g286
tp1426
a(I3
g286
tp1427
a(I0
g178
tp1428
a(I1
g130
tp1429
a(I2
g286
tp1430
a(I3
g286
tp1431
a(I0
g128
tp1432
a(I1
g178
tp1433
a(I2
g286
tp1434
a(I3
g286
tp1435
a(I0
g182
tp1436
a(I1
g128
tp1437
a(I2
g286
tp1438
a(I3
g286
tp1439
a(I0
g130
tp1440
a(I1
g182
tp1441
a(I2
g286
tp1442
a(I3
g286
tp1443
a(I0
g178
tp1444
a(I1
g178
tp1445
a(I2
g286
tp1446
a(I3
g286
tp1447
a(I0
g182
tp1448
a(I1
g130
tp1449
a(I2
g286
tp1450
a(I3
g286
tp1451
a(I0
g128
tp1452
a(I1
g182
tp1453
a(I2
g286
tp1454
a(I3
g286
tp1455
a(I0
g178
tp1456
a(I1
g128
tp1457
a(I2
g286
tp1458
a(I3
g286
tp1459
a(I0
g130
tp1460
a(I1
g178
tp1461
a(I2
g286
tp1462
a(I3
g286
tp1463
a(I0
g182
tp1464
a(I1
g182
tp1465
a(I2
g286
tp1466
a(I3
g286
tp1467
a(I0
g178
tp1468
a(I1
g130
tp1469
a(I2
g286
tp1470
a(I3
g286
tp1471
a(I0
g128
tp1472
a(I1
g178
tp1473
a(I2
g286
tp1474
a(I3
g286
tp1475
a(I0
g182
tp1476
a(I1
g128
tp1477
a(I2
g286
tp1478
a(I3
g286
tp1479
a(I0
g130
tp1480
a(I1
g130
tp1481
a(I2
g286
tp1482
a(I3
g286
tp1483
a(I0
g128
tp1484
a(I1
g128
tp1485
a(I2
g286
tp1486
a(I3
g286
tp1487
a(I0
g130
tp1488
a(I1
g182
tp1489
a(I2
g286
tp1490
a(I3
g286
tp1491
a(I0
g178
tp1492
a(I1
g130
tp1493
a(I2
g286
tp1494
a(I3
g286
tp1495
a(I0
g128
tp1496
a(I1
g128
tp1497
a(I2
g286
tp1498
a(I3
g286
tp1499
a(I0
g130
tp1500
a(I1
g178
tp1501
a(I2
g286
tp1502
a(I3
g286
tp1503
a(I0
g182
tp1504
a(I1
g130
tp1505
a(I2
g286
tp1506
a(I3
g286
tp1507
a(I0
g128
tp1508
a(I1
g128
tp1509
a(I2
g286
tp1510
a(I3
g286
tp1511
a(I0
g130
tp1512
a(I1
g182
tp1513
a(I2
g286
tp1514
a(I3
g286
tp1515
a(I0
g178
tp1516
a(I1
g178
tp1517
a(I2
g286
tp1518
a(I3
g286
tp1519
a(I0
g182
tp1520
a(I1
g182
tp1521
a(I2
g286
tp1522
a(I3
g286
tp1523
a(I0
g178
tp1524
a(I1
g178
tp1525
a(I2
g286
tp1526
a(I3
g286
tp1527
a(I0
g182
tp1528
a(I1
g182
tp1529
a(I2
g286
tp1530
a(I3
g286
tp1531
a(I0
g178
tp1532
a(I1
g130
tp1533
a(I2
g286
tp1534
a(I3
g286
tp1535
a(I0
g128
tp1536
a(I1
g178
tp1537
a(I2
g286
tp1538
a(I3
g286
tp1539
a(I0
g182
tp1540
a(I1
g182
tp1541
a(I2
g286
tp1542
a(I3
g286
tp1543
a(I0
g178
tp1544
a(I1
g178
tp1545
a(I2
g286
tp1546
a(I3
g286
tp1547
a(I0
g182
tp1548
a(I1
g182
tp1549
a(I2
g286
tp1550
a(I3
g286
tp1551
a(I0
g178
tp1552
a(I1
g128
tp1553
a(I2
g286
tp1554
a(I3
g286
tp1555
a(I0
g130
tp1556
a(I1
g178
tp1557
a(I2
g286
tp1558
a(I3
g286
tp1559
a(I0
g182
tp1560
a(I1
g182
tp1561
a(I2
g286
tp1562
a(I3
g286
tp1563
a(I0
g178
tp1564
a(I1
g178
tp1565
a(I2
g286
tp1566
a(I3
g286
tp1567
a(I0
g182
tp1568
a(I1
g130
tp1569
a(I2
g286
tp1570
a(I3
g286
tp1571
a(I0
g128
tp1572
a(I1
g128
tp1573
a(I2
g286
tp1574
a(I3
g286
tp1575
a(I0
g130
tp1576
a(I1
g182
tp1577
a(I2
g286
tp1578
a(I3
g286
tp1579
a(I0
g178
tp1580
a(I1
g130
tp1581
a(I2
g286
tp1582
a(I3
g286
tp1583
a(I0
g128
tp1584
a(I1
g178
tp1585
a(I2
g286
tp1586
a(I3
g286
tp1587
a(I0
g182
tp1588
a(I1
g128
tp1589
a(I2
g286
tp1590
a(I3
g286
tp1591
a(I0
g130
tp1592
a(I1
g130
tp1593
a(I2
g286
tp1594
a(I3
g286
tp1595
a(I0
g128
tp1596
a(I1
g128
tp1597
a(I2
g286
tp1598
a(I3
g286
tp1599
a(I0
g130
tp1600
a(I1
g130
tp1601
a(I2
g286
tp1602
a(I3
g286
tp1603
a(I0
g128
tp1604
a(I1
g182
tp1605
a(I2
g286
tp1606
a(I3
g286
tp1607
a(I0
g178
tp1608
a(I1
g178
tp1609
a(I2
g286
tp1610
a(I3
g286
tp1611
a(I0
g182
tp1612
a(I1
g128
tp1613
a(I2
g286
tp1614
a(I3
g286
tp1615
a(I0
g130
tp1616
a(I1
g182
tp1617
a(I2
g286
tp1618
a(I3
g286
tp1619
a(I0
g178
tp1620
a(I1
g178
tp1621
a(I2
g286
tp1622
a(I3
g286
tp1623
a(I0
g182
tp1624
a(I1
g130
tp1625
a(I2
g286
tp1626
a(I3
g286
tp1627
a(I0
g128
tp1628
a(I1
g182
tp1629
a(I2
g286
tp1630
a(I3
g286
tp1631
a(I0
g178
tp1632
a(I1
g178
tp1633
a(I2
g286
tp1634
a(I3
g286
tp1635
a(I0
g182
tp1636
a(I1
g128
tp1637
a(I2
g286
tp1638
a(I3
g286
tp1639
a(I0
g130
tp1640
a(I1
g182
tp1641
a(I2
g286
tp1642
a(I3
g286
tp1643
a(I0
g178
tp1644
a(I1
g130
tp1645
a(I2
g286
tp1646
a(I3
g286
tp1647
a(I0
g128
tp1648
a(I1
g178
tp1649
a(I2
g286
tp1650
a(I3
g286
tp1651
a(I0
g182
tp1652
a(I1
g182
tp1653
a(I2
g286
tp1654
a(I3
g286
tp1655
a(I0
g178
tp1656
a(I1
g128
tp1657
a(I2
g286
tp1658
a(I3
g286
tp1659
a(I0
g130
tp1660
a(I1
g130
tp1661
a(I2
g286
tp1662
a(I3
g286
tp1663
a(I0
g128
tp1664
a(I1
g128
tp1665
a(I2
g286
tp1666
a(I3
g286
tp1667
a(I0
g130
tp1668
a(I1
g130
tp1669
a(I2
g286
tp1670
a(I3
g286
tp1671
a(I0
g128
tp1672
a(I1
g178
tp1673
a(I2
g286
tp1674
a(I3
g286
tp1675
a(I0
g182
tp1676
a(I1
g128
tp1677
a(I2
g286
tp1678
a(I3
g286
tp1679
a(I0
g130
tp1680
a(I1
g130
tp1681
a(I2
g286
tp1682
a(I3
g286
tp1683
a(I0
g128
tp1684
a(I1
g182
tp1685
a(I2
g286
tp1686
a(I3
g286
tp1687
a(I0
g178
tp1688
a(I1
g128
tp1689
a(I2
g286
tp1690
a(I3
g286
tp1691
a(I0
g130
tp1692
a(I1
g130
tp1693
a(I2
g286
tp1694
a(I3
g286
tp1695
a(I0
g128
tp1696
a(I1
g128
tp1697
a(I2
g286
tp1698
a(I3
g286
tp1699
a(I0
g130
tp1700
a(I1
g178
tp1701
a(I2
g286
tp1702
a(I3
g286
tp1703
a(I0
g182
tp1704
a(I1
g182
tp1705
a(I2
g286
tp1706
a(I3
g286
tp1707
a(I0
g178
tp1708
a(I1
g178
tp1709
a(I2
g286
tp1710
a(I3
g286
tp1711
a(I0
g182
tp1712
a(I1
g130
tp1713
a(I2
g286
tp1714
a(I3
g286
tp1715
a(I0
g128
tp1716
a(I1
g182
tp1717
a(I2
g286
tp1718
a(I3
g286
tp1719
a(I0
g178
tp1720
a(I1
g128
tp1721
a(I2
g286
tp1722
a(I3
g286
tp1723
a(I0
g130
tp1724
a(I1
g130
tp1725
a(I2
g286
tp1726
a(I3
g286
tp1727
a(I0
g128
tp1728
a(I1
g178
tp1729
a(I2
g286
tp1730
a(I3
g286
tp1731
a(I0
g182
tp1732
a(I1
g182
tp1733
a(I2
g286
tp1734
a(I3
g286
tp1735
a(I0
g178
tp1736
a(I1
g128
tp1737
a(I2
g286
tp1738
a(I3
g286
tp1739
a(I0
g130
tp1740
a(I1
g178
tp1741
a(I2
g286
tp1742
a(I3
g286
tp1743
a(I0
g182
tp1744
a(I1
g130
tp1745
a(I2
g286
tp1746
a(I3
g286
tp1747
a(I0
g128
tp1748
a(I1
g182
tp1749
a(I2
g286
tp1750
a(I3
g286
tp1751
a(I0
g178
tp1752
a(I1
g178
tp1753
a(I2
g286
tp1754
a(I3
g286
tp1755
a(I0
g182
tp1756
a(I1
g128
tp1757
a(I2
g286
tp1758
a(I3
g286
tp1759
a(I0
g130
tp1760
a(I1
g130
tp1761
a(I2
g286
tp1762
a(I3
g286
tp1763
a(I0
g128
tp1764
a(I1
g128
tp1765
a(I2
g286
tp1766
a(I3
g286
tp1767
a(I0
g130
tp1768
a(I1
g182
tp1769
a(I2
g286
tp1770
a(I3
g286
tp1771
a(I0
g178
tp1772
a(I1
g178
tp1773
a(I2
g286
tp1774
a(I3
g286
tp1775
a(I0
g182
tp1776
a(I1
g130
tp1777
a(I2
g286
tp1778
a(I3
g286
tp1779
a(I0
g128
tp1780
a(I1
g182
tp1781
a(I2
g286
tp1782
a(I3
g286
tp1783
a(I0
g178
tp1784
a(I1
g178
tp1785
a(I2
g286
tp1786
a(I3
g286
tp1787
a(I0
g182
tp1788
a(I1
g182
tp1789
a(I2
g286
tp1790
a(I3
g286
tp1791
a(I0
g178
tp1792
a(I1
g128
tp1793
a(I2
g286
tp1794
a(I3
g286
tp1795
a(I0
g130
tp1796
a(I1
g178
tp1797
a(I2
g286
tp1798
a(I3
g286
tp1799
a(I0
g182
tp1800
a(I1
g182
tp1801
a(I2
g286
tp1802
a(I3
g286
tp1803
a(I0
g178
tp1804
a(I1
g130
tp1805
a(I2
g286
tp1806
a(I3
g286
tp1807
a(I0
g128
tp1808
a(I1
g128
tp1809
a(I2
g286
tp1810
a(I3
g286
tp1811
a(I0
g130
tp1812
a(I1
g130
tp1813
a(I2
g286
tp1814
a(I3
g286
tp1815
a(I0
g128
tp1816
a(I1
g128
tp1817
a(I2
g286
tp1818
a(I3
g286
tp1819
a(I0
g130
tp1820
a(I1
g130
tp1821
a(I2
g286
tp1822
a(I3
g286
tp1823
a(I0
g128
tp1824
a(I1
g128
tp1825
a(I2
g286
tp1826
a(I3
g286
tp1827
a(I0
g130
tp1828
a(I1
g178
tp1829
a(I2
g286
tp1830
a(I3
g286
tp1831
a(I0
g182
tp1832
a(I1
g182
tp1833
a(I2
g286
tp1834
a(I3
g286
tp1835
a(I0
g178
tp1836
a(I1
g178
tp1837
a(I2
g286
tp1838
a(I3
g286
tp1839
a(I0
g182
tp1840
a(I1
g182
tp1841
a(I2
g286
tp1842
a(I3
g286
tp1843
a(I0
g178
tp1844
a(I1
g130
tp1845
a(I2
g286
tp1846
a(I3
g286
tp1847
a(I0
g128
tp1848
a(I1
g178
tp1849
a(I2
g286
tp1850
a(I3
g286
tp1851
a(I0
g182
tp1852
a(I1
g182
tp1853
a(I2
g286
tp1854
a(I3
g286
tp1855
a(I0
g178
tp1856
a(I1
g128
tp1857
a(I2
g286
tp1858
a(I3
g286
tp1859
a(I0
g130
tp1860
a(I1
g178
tp1861
a(I2
g286
tp1862
a(I3
g286
tp1863
a(I0
g182
tp1864
a(I1
g182
tp1865
a(I2
g286
tp1866
a(I3
g286
tp1867
a(I0
g178
tp1868
a(I1
g130
tp1869
a(I2
g286
tp1870
a(I3
g286
tp1871
a(I0
g128
tp1872
a(I1
g178
tp1873
a(I2
g286
tp1874
a(I3
g286
tp1875
a(I0
g182
tp1876
a(I1
g128
tp1877
a(I2
g286
tp1878
a(I3
g286
tp1879
a(I0
g130
tp1880
a(I1
g182
tp1881
a(I2
g286
tp1882
a(I3
g286
tp1883
a(I0
g178
tp1884
a(I1
g178
tp1885
a(I2
g286
tp1886
a(I3
g286
tp1887
a(I0
g182
tp1888
a(I1
g130
tp1889
a(I2
g286
tp1890
a(I3
g286
tp1891
a(I0
g128
tp1892
a(I1
g182
tp1893
a(I2
g286
tp1894
a(I3
g286
tp1895
a(I0
g178
tp1896
a(I1
g128
tp1897
a(I2
g286
tp1898
a(I3
g286
tp1899
a(I0
g130
tp1900
a(I1
g130
tp1901
a(I2
g286
tp1902
a(I3
g286
tp1903
a(I0
g128
tp1904
a(I1
g178
tp1905
a(I2
g286
tp1906
a(I3
g286
tp1907
a(I0
g182
tp1908
a(I1
g182
tp1909
a(I2
g286
tp1910
a(I3
g286
tp1911
a(I0
g178
tp1912
a(I1
g178
tp1913
a(I2
g286
tp1914
a(I3
g286
tp1915
a(I0
g182
tp1916
a(I1
g128
tp1917
a(I2
g286
tp1918
a(I3
g286
tp1919
a(I0
g130
tp1920
a(I1
g130
tp1921
a(I2
g286
tp1922
a(I3
g286
tp1923
a(I0
g128
tp1924
a(I1
g128
tp1925
a(I2
g286
tp1926
a(I3
g286
tp1927
a(I0
g130
tp1928
a(I1
g130
tp1929
a(I2
g286
tp1930
a(I3
g286
tp1931
a(I0
g128
tp1932
a(I1
g182
tp1933
a(I2
g286
tp1934
a(I3
g286
tp1935
a(I0
g178
tp1936
a(I1
g128
tp1937
a(I2
g286
tp1938
a(I3
g286
tp1939
a(I0
g130
tp1940
a(I1
g130
tp1941
a(I2
g286
tp1942
a(I3
g286
tp1943
a(I0
g128
tp1944
a(I1
g128
tp1945
a(I2
g286
tp1946
a(I3
g286
tp1947
a(I0
g130
tp1948
a(I1
g178
tp1949
a(I2
g286
tp1950
a(I3
g286
tp1951
a(I0
g182
tp1952
a(I1
g182
tp1953
a(I2
g286
tp1954
a(I3
g286
tp1955
a(I0
g178
tp1956
a(I1
g130
tp1957
a(I2
g286
tp1958
a(I3
g286
tp1959
a(I0
g128
tp1960
a(I1
g178
tp1961
a(I2
g286
tp1962
a(I3
g286
tp1963
a(I0
g182
tp1964
a(I1
g128
tp1965
a(I2
g286
tp1966
a(I3
g286
tp1967
a(I0
g130
tp1968
a(I1
g130
tp1969
a(I2
g286
tp1970
a(I3
g286
tp1971
a(I0
g128
tp1972
a(I1
g128
tp1973
a(I2
g286
tp1974
a(I3
g286
tp1975
a(I0
g130
tp1976
a(I1
g182
tp1977
a(I2
g286
tp1978
a(I3
g286
tp1979
a(I0
g178
tp1980
a(I1
g130
tp1981
a(I2
g286
tp1982
a(I3
g286
tp1983
a(I0
g128
tp1984
a(I1
g178
tp1985
a(I2
g286
tp1986
a(I3
g286
tp1987
a(I0
g182
tp1988
a(I1
g182
tp1989
a(I2
g286
tp1990
a(I3
g286
tp1991
a(I0
g178
tp1992
a(I1
g128
tp1993
a(I2
g286
tp1994
a(I3
g286
tp1995
a(I0
g130
tp1996
a(I1
g178
tp1997
a(I2
g286
tp1998
a(I3
g286
tp1999
a(I0
g182
tp2000
a(I1
g130
tp2001
a(I2
g286
tp2002
a(I3
g286
tp2003
a(I0
g128
tp2004
a(I1
g128
tp2005
a(I2
g286
tp2006
a(I3
g286
tp2007
a(I0
g130
tp2008
a(I1
g182
tp2009
a(I2
g286
tp2010
a(I3
g286
tp2011
a(I0
g178
tp2012
a(I1
g178
tp2013
a(I2
g286
tp2014
a(I3
g286
tp2015
a(I0
g182
tp2016
a(I1
g130
tp2017
a(I2
g286
tp2018
a(I3
g286
tp2019
a(I0
g128
tp2020
a(I1
g182
tp2021
a(I2
g286
tp2022
a(I3
g286
tp2023
a(I0
g178
tp2024
a(I1
g128
tp2025
a(I2
g286
tp2026
a(I3
g286
tp2027
a(I0
g130
tp2028
a(I1
g130
tp2029
a(I2
g286
tp2030
a(I3
g286
tp2031
a(I0
g128
tp2032
a(I1
g178
tp2033
a(I2
g286
tp2034
a(I3
g286
tp2035
a(I0
g182
tp2036
a(I1
g128
tp2037
a(I2
g286
tp2038
a(I3
g286
tp2039
a(I0
g130
tp2040
a(I1
g182
tp2041
a(I2
g286
tp2042
a(I3
g286
tp2043
a(I0
g178
tp2044
a(I1
g130
tp2045
a(I2
g286
tp2046
a(I3
g286
tp2047
a(I0
g128
tp2048
a(I1
g128
tp2049
a(I2
g286
tp2050
a(I3
g286
tp2051
a(I0
g130
tp2052
a(I1
g130
tp2053
a(I2
g286
tp2054
a(I3
g286
tp2055
a(I0
g128
tp2056
a(I1
g128
tp2057
a(I2
g286
tp2058
a(I3
g286
tp2059
a(I0
g130
tp2060
a(I1
g130
tp2061
a(I2
g286
tp2062
a(I3
g286
tp2063
a(I0
g128
tp2064
a(I1
g128
tp2065
a(I2
g286
tp2066
a(I3
g286
tp2067
a(I0
g130
tp2068
a(I1
g130
tp2069
a(I2
g286
tp2070
a(I3
g286
tp2071
a(I0
g128
tp2072
a(I1
g178
tp2073
a(I2
g286
tp2074
a(I3
g286
tp2075
a(I0
g182
tp2076
a(I1
g182
tp2077
a(I2
g286
tp2078
a(I3
g286
tp2079
a(I0
g178
tp2080
a(I1
g128
tp2081
a(I2
g286
tp2082
a(I3
g286
tp2083
a(I0
g130
tp2084
a(I1
g130
tp2085
a(I2
g286
tp2086
a(I3
g286
tp2087
a(I0
g128
tp2088
a(I1
g178
tp2089
a(I2
g286
tp2090
a(I3
g286
tp2091
a(I0
g182
tp2092
a(I1
g182
tp2093
a(I2
g286
tp2094
a(I3
g286
tp2095
a(I0
g178
tp2096
a(I1
g128
tp2097
a(I2
g286
tp2098
a(I3
g286
tp2099
a(I0
g130
tp2100
a(I1
g130
tp2101
a(I2
g286
tp2102
a(I3
g286
tp2103
a(I0
g128
tp2104
a(I1
g178
tp2105
a(I2
g286
tp2106
a(I3
g286
tp2107
a(I0
g182
tp2108
a(I1
g128
tp2109
a(I2
g286
tp2110
a(I3
g286
tp2111
a(I0
g130
tp2112
a(I1
g130
tp2113
a(I2
g286
tp2114
a(I3
g286
tp2115
a(I0
g128
tp2116
a(I1
g182
tp2117
a(I2
g286
tp2118
a(I3
g286
tp2119
a(I0
g178
tp2120
a(I1
g178
tp2121
a(I2
g286
tp2122
a(I3
g286
tp2123
a(I0
g182
tp2124
a(I1
g128
tp2125
a(I2
g286
tp2126
a(I3
g286
tp2127
a(I0
g130
tp2128
a(I1
g130
tp2129
a(I2
g286
tp2130
a(I3
g286
tp2131
a(I0
g128
tp2132
a(I1
g182
tp2133
a(I2
g286
tp2134
a(I3
g286
tp2135
a(I0
g178
tp2136
a(I1
g178
tp2137
a(I2
g286
tp2138
a(I3
g286
tp2139
a(I0
g182
tp2140
a(I1
g182
tp2141
a(I2
g286
tp2142
a(I3
g286
tp2143
a(I0
g178
tp2144
a(I1
g178
tp2145
a(I2
g286
tp2146
a(I3
g286
tp2147
a(I0
g182
tp2148
a(I1
g128
tp2149
a(I2
g286
tp2150
a(I3
g286
tp2151
a(I0
g130
tp2152
a(I1
g130
tp2153
a(I2
g286
tp2154
a(I3
g286
tp2155
a(I0
g128
tp2156
a(I1
g128
tp2157
a(I2
g286
tp2158
a(I3
g286
tp2159
a(I0
g130
tp2160
a(I1
g130
tp2161
a(I2
g286
tp2162
a(I3
g286
tp2163
a(I0
g128
tp2164
a(I1
g128
tp2165
a(I2
g286
tp2166
a(I3
g286
tp2167
a(I0
g130
tp2168
a(I1
g182
tp2169
a(I2
g286
tp2170
a(I3
g286
tp2171
a(I0
g178
tp2172
a(I1
g130
tp2173
a(I2
g286
tp2174
a(I3
g286
tp2175
a(I0
g128
tp2176
a(I1
g178
tp2177
a(I2
g286
tp2178
a(I3
g286
tp2179
a(I0
g182
tp2180
a(I1
g182
tp2181
a(I2
g286
tp2182
a(I3
g286
tp2183
a(I0
g178
tp2184
a(I1
g178
tp2185
a(I2
g286
tp2186
a(I3
g286
tp2187
a(I0
g182
tp2188
a(I1
g182
tp2189
a(I2
g286
tp2190
a(I3
g286
tp2191
a(I0
g178
tp2192
a(I1
g128
tp2193
a(I2
g286
tp2194
a(I3
g286
tp2195
a(I0
g130
tp2196
a(I1
g130
tp2197
a(I2
g286
tp2198
a(I3
g286
tp2199
a(I0
g128
tp2200
a(I1
g178
tp2201
a(I2
g286
tp2202
a(I3
g286
tp2203
a(I0
g182
tp2204
a(I1
g182
tp2205
a(I2
g286
tp2206
a(I3
g286
tp2207
a(I0
g178
tp2208
a(I1
g128
tp2209
a(I2
g286
tp2210
a(I3
g286
tp2211
a(I0
g130
tp2212
a(I1
g178
tp2213
a(I2
g286
tp2214
a(I3
g286
tp2215
a(I0
g182
tp2216
a(I1
g130
tp2217
a(I2
g286
tp2218
a(I3
g286
tp2219
a(I0
g128
tp2220
a(I1
g182
tp2221
a(I2
g286
tp2222
a(I3
g286
tp2223
a(I0
g178
tp2224
a(I1
g128
tp2225
a(I2
g286
tp2226
a(I3
g286
tp2227
a(I0
g130
tp2228
a(I1
g130
tp2229
a(I2
g286
tp2230
a(I3
g286
tp2231
a(I0
g128
tp2232
a(I1
g178
tp2233
a(I2
g286
tp2234
a(I3
g286
tp2235
a(I0
g182
tp2236
a(I1
g182
tp2237
a(I2
g286
tp2238
a(I3
g286
tp2239
a(I0
g178
tp2240
a(I1
g128
tp2241
a(I2
g286
tp2242
a(I3
g286
tp2243
a(I0
g130
tp2244
a(I1
g178
tp2245
a(I2
g286
tp2246
a(I3
g286
tp2247
a(I0
g182
tp2248
a(I1
g182
tp2249
a(I2
g286
tp2250
a(I3
g286
tp2251
a(I0
g178
tp2252
a(I1
g178
tp2253
a(I2
g286
tp2254
a(I3
g286
tp2255
a(I0
g182
tp2256
a(I1
g130
tp2257
a(I2
g286
tp2258
a(I3
g286
tp2259
a(I0
g128
tp2260
a(I1
g182
tp2261
a(I2
g286
tp2262
a(I3
g286
tp2263
a(I0
g178
tp2264
a(I1
g128
tp2265
a(I2
g286
tp2266
a(I3
g286
tp2267
a(I0
g130
tp2268
a(I1
g130
tp2269
a(I2
g286
tp2270
a(I3
g286
tp2271
a(I0
g128
tp2272
a(I1
g178
tp2273
a(I2
g286
tp2274
a(I3
g286
tp2275
a(I0
g182
tp2276
a(I1
g128
tp2277
a(I2
g286
tp2278
a(I3
g286
tp2279
a(I0
g130
tp2280
a(I1
g130
tp2281
a(I2
g286
tp2282
a(I3
g286
tp2283
a(I0
g128
tp2284
a(I1
g128
tp2285
a(I2
g286
tp2286
a(I3
g286
tp2287
a(I0
g130
tp2288
a(I1
g182
tp2289
a(I2
g286
tp2290
a(I3
g286
tp2291
a(I0
g178
tp2292
a(I1
g178
tp2293
a(I2
g286
tp2294
a(I3
g286
tp2295
a(I0
g182
tp2296
a(I1
g182
tp2297
a(I2
g286
tp2298
a(I3
g286
tp2299
a(I0
g178
tp2300
a(I1
g178
tp2301
a(I2
g286
tp2302
a(I3
g286
tp2303
a(I0
g182
tp2304
a(I1
g130
tp2305
a(I2
g286
tp2306
a(I3
g286
tp2307
a(I0
g128
tp2308
a(I1
g182
tp2309
a(I2
g286
tp2310
a(I3
g286
tp2311
a(I0
g178
tp2312
a(I1
g128
tp2313
a(I2
g286
tp2314
a(I3
g286
tp2315
a(I0
g130
tp2316
a(I1
g178
tp2317
a(I2
g286
tp2318
a(I3
g286
tp2319
a(I0
g182
tp2320
a(I1
g182
tp2321
a(I2
g286
tp2322
a(I3
g286
tp2323
a(I0
g178
tp2324
a(I1
g178
tp2325
a(I2
g286
tp2326
a(I3
g286
tp2327
a(I0
g182
tp2328
a(I1
g182
tp2329
a(I2
g286
tp2330
a(I3
g286
tp2331
a(I0
g178
tp2332
a(I1
g130
tp2333
a(I2
g286
tp2334
a(I3
g286
tp2335
a(I0
g128
tp2336
a(I1
g178
tp2337
a(I2
g286
tp2338
a(I3
g286
tp2339
a(I0
g182
tp2340
a(I1
g182
tp2341
a(I2
g286
tp2342
a(I3
g286
tp2343
a(I0
g178
tp2344
a(I1
g128
tp2345
a(I2
g286
tp2346
a(I3
g286
tp2347
a(I0
g130
tp2348
a(I1
g130
tp2349
a(I2
g286
tp2350
a(I3
g286
tp2351
a(I0
g128
tp2352
a(I1
g128
tp2353
a(I2
g286
tp2354
a(I3
g286
tp2355
a(I0
g130
tp2356
a(I1
g178
tp2357
a(I2
g286
tp2358
a(I3
g286
tp2359
a(I0
g182
tp2360
a(I1
g130
tp2361
a(I2
g286
tp2362
a(I3
g286
tp2363
a(I0
g128
tp2364
a(I1
g182
tp2365
a(I2
g286
tp2366
a(I3
g286
tp2367
a(I0
g178
tp2368
a(I1
g128
tp2369
a(I2
g286
tp2370
a(I3
g286
tp2371
a(I0
g130
tp2372
a(I1
g178
tp2373
a(I2
g286
tp2374
a(I3
g286
tp2375
a(I0
g182
tp2376
a(I1
g130
tp2377
a(I2
g286
tp2378
a(I3
g286
tp2379
a(I0
g128
tp2380
a(I1
g128
tp2381
a(I2
g286
tp2382
a(I3
g286
tp2383
a(I0
g130
tp2384
a(I1
g130
tp2385
a(I2
g286
tp2386
a(I3
g286
tp2387
a(I0
g128
tp2388
a(I1
g182
tp2389
a(I2
g286
tp2390
a(I3
g286
tp2391
a(I0
g178
tp2392
a(I1
g128
tp2393
a(I2
g286
tp2394
a(I3
g286
tp2395
a(I0
g130
tp2396
a(I1
g130
tp2397
a(I2
g286
tp2398
a(I3
g286
tp2399
a(I0
g128
tp2400
a(I1
g128
tp2401
a(I2
g286
tp2402
a(I3
g286
tp2403
a(I0
g130
tp2404
a(I1
g130
tp2405
a(I2
g286
tp2406
a(I3
g286
tp2407
a(I0
g128
tp2408
a(I1
g128
tp2409
a(I2
g286
tp2410
a(I3
g286
tp2411
a(I0
g130
tp2412
a(I1
g130
tp2413
a(I2
g286
tp2414
a(I3
g286
tp2415
a(I0
g128
tp2416
a(I1
g178
tp2417
a(I2
g286
tp2418
a(I3
g286
tp2419
a(I0
g182
tp2420
a(I1
g182
tp2421
a(I2
g286
tp2422
a(I3
g286
tp2423
a(I0
g178
tp2424
a(I1
g178
tp2425
a(I2
g286
tp2426
a(I3
g286
tp2427
a(I0
g182
tp2428
a(I1
g182
tp2429
a(I2
g286
tp2430
a(I3
g286
tp2431
a(I0
g178
tp2432
a(I1
g128
tp2433
a(I2
g286
tp2434
a(I3
g286
tp2435
a(I0
g130
tp2436
a(I1
g178
tp2437
a(I2
g286
tp2438
a(I3
g286
tp2439
a(I0
g182
tp2440
a(I1
g182
tp2441
a(I2
g286
tp2442
a(I3
g286
tp2443
a(I0
g178
tp2444
a(I1
g178
tp2445
a(I2
g286
tp2446
a(I3
g286
tp2447
a(I0
g182
tp2448
a(I1
g130
tp2449
a(I2
g286
tp2450
a(I3
g286
tp2451
a(I0
g128
tp2452
a(I1
g182
tp2453
a(I2
g286
tp2454
a(I3
g286
tp2455
a(I0
g178
tp2456
a(I1
g178
tp2457
a(I2
g286
tp2458
a(I3
g286
tp2459
a(I0
g182
tp2460
a(I1
g128
tp2461
a(I2
g286
tp2462
a(I3
g286
tp2463
a(I0
g130
tp2464
a(I1
g182
tp2465
a(I2
g286
tp2466
a(I3
g286
tp2467
a(I0
g178
tp2468
a(I1
g178
tp2469
a(I2
g286
tp2470
a(I3
g286
tp2471
a(I0
g182
tp2472
a(I1
g182
tp2473
a(I2
g286
tp2474
a(I3
g286
tp2475
a(I0
g178
tp2476
a(I1
g130
tp2477
a(I2
g286
tp2478
a(I3
g286
tp2479
a(I0
g128
tp2480
a(I1
g128
tp2481
a(I2
g286
tp2482
a(I3
g286
tp2483
a(I0
g130
tp2484
a(I1
g130
tp2485
a(I2
g286
tp2486
a(I3
g286
tp2487
a(I0
g128
tp2488
a(I1
g178
tp2489
a(I2
g286
tp2490
a(I3
g286
tp2491
a(I0
g182
tp2492
a(I1
g128
tp2493
a(I2
g286
tp2494
a(I3
g286
tp2495
a(I0
g130
tp2496
a(I1
g182
tp2497
a(I2
g286
tp2498
a(I3
g286
tp2499
a(I0
g178
tp2500
a(I1
g178
tp2501
a(I2
g286
tp2502
a(I3
g286
tp2503
a(I0
g182
tp2504
a(I1
g130
tp2505
a(I2
g286
tp2506
a(I3
g286
tp2507
a(I0
g128
tp2508
a(I1
g128
tp2509
a(I2
g286
tp2510
a(I3
g286
tp2511
a(I0
g130
tp2512
a(I1
g182
tp2513
a(I2
g286
tp2514
a(I3
g286
tp2515
a(I0
g178
tp2516
a(I1
g130
tp2517
a(I2
g286
tp2518
a(I3
g286
tp2519
a(I0
g128
tp2520
a(I1
g128
tp2521
a(I2
g286
tp2522
a(I3
g286
tp2523
a(I0
g130
tp2524
a(I1
g130
tp2525
a(I2
g286
tp2526
a(I3
g286
tp2527
a(I0
g128
tp2528
a(I1
g128
tp2529
a(I2
g286
tp2530
a(I3
g286
tp2531
a(I0
g130
tp2532
a(I1
g130
tp2533
a(I2
g286
tp2534
a(I3
g286
tp2535
a(I0
g128
tp2536
a(I1
g128
tp2537
a(I2
g286
tp2538
a(I3
g286
tp2539
a(I0
g130
tp2540
a(I1
g130
tp2541
a(I2
g286
tp2542
a(I3
g286
tp2543
a(I0
g128
tp2544
a(I1
g128
tp2545
a(I2
g286
tp2546
a(I3
g286
tp2547
a(I0
g130
tp2548
a(I1
g130
tp2549
a(I2
g286
tp2550
a(I3
g286
tp2551
a(I0
g128
tp2552
a(I1
g128
tp2553
a(I2
g286
tp2554
a(I3
g286
tp2555
a(I0
g130
tp2556
a(I1
g178
tp2557
a(I2
g286
tp2558
a(I3
g286
tp2559
a(I0
g182
tp2560
a(I1
g182
tp2561
a(I2
g286
tp2562
a(I3
g286
tp2563
a(I0
g178
tp2564
a(I1
g178
tp2565
a(I2
g286
tp2566
a(I3
g286
tp2567
a(I0
g182
tp2568
a(I1
g130
tp2569
a(I2
g286
tp2570
a(I3
g286
tp2571
a(I0
g128
tp2572
a(I1
g128
tp2573
a(I2
g286
tp2574
a(I3
g286
tp2575
a(I0
g130
tp2576
a(I1
g182
tp2577
a(I2
g286
tp2578
a(I3
g286
tp2579
a(I0
g178
tp2580
a(I1
g178
tp2581
a(I2
g286
tp2582
a(I3
g286
tp2583
a(I0
g182
tp2584
a(I1
g182
tp2585
a(I2
g286
tp2586
a(I3
g286
tp2587
a(I0
g178
tp2588
a(I1
g178
tp2589
a(I2
g286
tp2590
a(I3
g286
tp2591
a(I0
g182
tp2592
a(I1
g182
tp2593
a(I2
g286
tp2594
a(I3
g286
tp2595
a(I0
g178
tp2596
a(I1
g178
tp2597
a(I2
g286
tp2598
a(I3
g286
tp2599
a(I0
g182
tp2600
a(I1
g130
tp2601
a(I2
g286
tp2602
a(I3
g286
tp2603
a(I0
g128
tp2604
a(I1
g182
tp2605
a(I2
g286
tp2606
a(I3
g286
tp2607
a(I0
g178
tp2608
a(I1
g178
tp2609
a(I2
g286
tp2610
a(I3
g286
tp2611
a(I0
g182
tp2612
a(I1
g128
tp2613
a(I2
g286
tp2614
a(I3
g286
tp2615
a(I0
g130
tp2616
a(I1
g182
tp2617
a(I2
g286
tp2618
a(I3
g286
tp2619
a(I0
g178
tp2620
a(I1
g178
tp2621
a(I2
g286
tp2622
a(I3
g286
tp2623
a(I0
g182
tp2624
a(I1
g182
tp2625
a(I2
g286
tp2626
a(I3
g286
tp2627
a(I0
g178
tp2628
a(I1
g130
tp2629
a(I2
g286
tp2630
a(I3
g286
tp2631
a(I0
g128
tp2632
a(I1
g178
tp2633
a(I2
g286
tp2634
a(I3
g286
tp2635
a(I0
g182
tp2636
a(I1
g128
tp2637
a(I2
g286
tp2638
a(I3
g286
tp2639
a(I0
g130
tp2640
a(I1
g130
tp2641
a(I2
g286
tp2642
a(I3
g286
tp2643
a(I0
g128
tp2644
a(I1
g128
tp2645
a(I2
g286
tp2646
a(I3
g286
tp2647
a(I0
g130
tp2648
a(I1
g130
tp2649
a(I2
g286
tp2650
a(I3
g286
tp2651
a(I0
g128
tp2652
a(I1
g182
tp2653
a(I2
g286
tp2654
a(I3
g286
tp2655
a(I0
g178
tp2656
a(I1
g178
tp2657
a(I2
g286
tp2658
a(I3
g286
tp2659
a(I0
g182
tp2660
a(I1
g128
tp2661
a(I2
g286
tp2662
a(I3
g286
tp2663
a(I0
g130
tp2664
a(I1
g130
tp2665
a(I2
g286
tp2666
a(I3
g286
tp2667
a(I0
g128
tp2668
a(I1
g182
tp2669
a(I2
g286
tp2670
a(I3
g286
tp2671
a(I0
g178
tp2672
a(I1
g178
tp2673
a(I2
g286
tp2674
a(I3
g286
tp2675
a(I0
g182
tp2676
a(I1
g182
tp2677
a(I2
g286
tp2678
a(I3
g286
tp2679
a(I0
g178
tp2680
a(I1
g128
tp2681
a(I2
g286
tp2682
a(I3
g286
tp2683
a(I0
g130
tp2684
a(I1
g130
tp2685
a(I2
g286
tp2686
a(I3
g286
tp2687
a(I0
g128
tp2688
a(I1
g178
tp2689
a(I2
g286
tp2690
a(I3
g286
tp2691
a(I0
g182
tp2692
a(I1
g128
tp2693
a(I2
g286
tp2694
a(I3
g286
tp2695
a(I0
g130
tp2696
a(I1
g130
tp2697
a(I2
g286
tp2698
a(I3
g286
tp2699
a(I0
g128
tp2700
a(I1
g128
tp2701
a(I2
g286
tp2702
a(I3
g286
tp2703
a(I0
g130
tp2704
a(I1
g130
tp2705
a(I2
g286
tp2706
a(I3
g286
tp2707
a(I0
g128
tp2708
a(I1
g128
tp2709
a(I2
g286
tp2710
a(I3
g286
tp2711
a(I0
g130
tp2712
a(I1
g182
tp2713
a(I2
g286
tp2714
a(I3
g286
tp2715
a(I0
g178
tp2716
a(I1
g178
tp2717
a(I2
g286
tp2718
a(I3
g286
tp2719
a(I0
g182
tp2720
a(I1
g130
tp2721
a(I2
g286
tp2722
a(I3
g286
tp2723
a(I0
g128
tp2724
a(I1
g182
tp2725
a(I2
g286
tp2726
a(I3
g286
tp2727
a(I0
g178
tp2728
a(I1
g128
tp2729
a(I2
g286
tp2730
a(I3
g286
tp2731
a(I0
g130
tp2732
a(I1
g178
tp2733
a(I2
g286
tp2734
a(I3
g286
tp2735
a(I0
g182
tp2736
a(I1
g182
tp2737
a(I2
g286
tp2738
a(I3
g286
tp2739
a(I0
g178
tp2740
a(I1
g130
tp2741
a(I2
g286
tp2742
a(I3
g286
tp2743
a(I0
g128
tp2744
a(I1
g128
tp2745
a(I2
g286
tp2746
a(I3
g286
tp2747
a(I0
g130
tp2748
a(I1
g178
tp2749
a(I2
g286
tp2750
a(I3
g286
tp2751
a(I0
g182
tp2752
a(I1
g130
tp2753
a(I2
g286
tp2754
a(I3
g286
tp2755
a(I0
g128
tp2756
a(I1
g128
tp2757
a(I2
g286
tp2758
a(I3
g286
tp2759
a(I0
g130
tp2760
a(I1
g182
tp2761
a(I2
g286
tp2762
a(I3
g286
tp2763
a(I0
g178
tp2764
a(I1
g130
tp2765
a(I2
g286
tp2766
a(I3
g286
tp2767
a(I0
g128
tp2768
a(I1
g128
tp2769
a(I2
g286
tp2770
a(I3
g286
tp2771
a(I0
g130
tp2772
a(I1
g130
tp2773
a(I2
g286
tp2774
a(I3
g286
tp2775
a(I0
g128
tp2776
a(I1
g128
tp2777
a(I2
g286
tp2778
a(I3
g286
tp2779
a(I0
g130
tp2780
a(I1
g178
tp2781
a(I2
g286
tp2782
a(I3
g286
tp2783
a(I0
g182
tp2784
a(I1
g182
tp2785
a(I2
g286
tp2786
a(I3
g286
tp2787
a(I0
g178
tp2788
a(I1
g178
tp2789
a(I2
g286
tp2790
a(I3
g286
tp2791
a(I0
g182
tp2792
a(I1
g130
tp2793
a(I2
g286
tp2794
a(I3
g286
tp2795
a(I0
g128
tp2796
a(I1
g182
tp2797
a(I2
g286
tp2798
a(I3
g286
tp2799
a(I0
g178
tp2800
a(I1
g128
tp2801
a(I2
g286
tp2802
a(I3
g286
tp2803
a(I0
g130
tp2804
a(I1
g178
tp2805
a(I2
g286
tp2806
a(I3
g286
tp2807
a(I0
g182
tp2808
a(I1
g182
tp2809
a(I2
g286
tp2810
a(I3
g286
tp2811
a(I0
g178
tp2812
a(I1
g178
tp2813
a(I2
g286
tp2814
a(I3
g286
tp2815
a(I0
g182
tp2816
a(I1
g182
tp2817
a(I2
g286
tp2818
a(I3
g286
tp2819
a(I0
g178
tp2820
a(I1
g178
tp2821
a(I2
g286
tp2822
a(I3
g286
tp2823
a(I0
g182
tp2824
a(I1
g130
tp2825
a(I2
g286
tp2826
a(I3
g286
tp2827
a(I0
g128
tp2828
a(I1
g128
tp2829
a(I2
g286
tp2830
a(I3
g286
tp2831
a(I0
g130
tp2832
a(I1
g182
tp2833
a(I2
g286
tp2834
a(I3
g286
tp2835
a(I0
g178
tp2836
a(I1
g178
tp2837
a(I2
g286
tp2838
a(I3
g286
tp2839
a(I0
g182
tp2840
a(I1
g130
tp2841
a(I2
g286
tp2842
a(I3
g286
tp2843
a(I0
g128
tp2844
a(I1
g128
tp2845
a(I2
g286
tp2846
a(I3
g286
tp2847
a(I0
g130
tp2848
a(I1
g130
tp2849
a(I2
g286
tp2850
a(I3
g286
tp2851
a(I0
g128
tp2852
a(I1
g182
tp2853
a(I2
g286
tp2854
a(I3
g286
tp2855
a(I0
g178
tp2856
a(I1
g128
tp2857
a(I2
g286
tp2858
a(I3
g286
tp2859
a(I0
g130
tp2860
a(I1
g130
tp2861
a(I2
g286
tp2862
a(I3
g286
tp2863
a(I0
g128
tp2864
a(I1
g128
tp2865
a(I2
g286
tp2866
a(I3
g286
tp2867
a(I0
g130
tp2868
a(I1
g178
tp2869
a(I2
g286
tp2870
a(I3
g286
tp2871
a(I0
g182
tp2872
a(I1
g182
tp2873
a(I2
g286
tp2874
a(I3
g286
tp2875
a(I0
g178
tp2876
a(I1
g130
tp2877
a(I2
g286
tp2878
a(I3
g286
tp2879
a(I0
g128
tp2880
a(I1
g128
tp2881
a(I2
g286
tp2882
a(I3
g286
tp2883
a(I0
g130
tp2884
a(I1
g130
tp2885
a(I2
g286
tp2886
a(I3
g286
tp2887
a(I0
g128
tp2888
a(I1
g128
tp2889
a(I2
g286
tp2890
a(I3
g286
tp2891
a(I0
g130
tp2892
a(I1
g178
tp2893
a(I2
g286
tp2894
a(I3
g286
tp2895
a(I0
g182
tp2896
a(I1
g182
tp2897
a(I2
g286
tp2898
a(I3
g286
tp2899
a(I0
g178
tp2900
a(I1
g130
tp2901
a(I2
g286
tp2902
a(I3
g286
tp2903
a(I0
g128
tp2904
a(I1
g128
tp2905
a(I2
g286
tp2906
a(I3
g286
tp2907
a(I0
g130
tp2908
a(I1
g178
tp2909
a(I2
g286
tp2910
a(I3
g286
tp2911
a(I0
g182
tp2912
a(I1
g182
tp2913
a(I2
g286
tp2914
a(I3
g286
tp2915
a(I0
g178
tp2916
a(I1
g178
tp2917
a(I2
g286
tp2918
a(I3
g286
tp2919
a(I0
g182
tp2920
a(I1
g182
tp2921
a(I2
g286
tp2922
a(I3
g286
tp2923
a(I0
g178
tp2924
a(I1
g130
tp2925
a(I2
g286
tp2926
a(I3
g286
tp2927
a(I0
g128
tp2928
a(I1
g128
tp2929
a(I2
g286
tp2930
a(I3
g286
tp2931
a(I0
g130
tp2932
a(I1
g178
tp2933
a(I2
g286
tp2934
a(I3
g286
tp2935
a(I0
g182
tp2936
a(I1
g182
tp2937
a(I2
g286
tp2938
a(I3
g286
tp2939
a(I0
g178
tp2940
a(I1
g178
tp2941
a(I2
g286
tp2942
a(I3
g286
tp2943
a(I0
g182
tp2944
a(I1
g130
tp2945
a(I2
g286
tp2946
a(I3
g286
tp2947
a(I0
g128
tp2948
a(I1
g128
tp2949
a(I2
g286
tp2950
a(I3
g286
tp2951
a(I0
g130
tp2952
a(I1
g182
tp2953
a(I2
g286
tp2954
a(I3
g286
tp2955
a(I0
g178
tp2956
a(I1
g130
tp2957
a(I2
g286
tp2958
a(I3
g286
tp2959
a(I0
g128
tp2960
a(I1
g178
tp2961
a(I2
g286
tp2962
a(I3
g286
tp2963
a(I0
g182
tp2964
a(I1
g182
tp2965
a(I2
g286
tp2966
a(I3
g286
tp2967
a(I0
g178
tp2968
a(I1
g178
tp2969
a(I2
g286
tp2970
a(I3
g286
tp2971
a(I0
g182
tp2972
a(I1
g128
tp2973
a(I2
g286
tp2974
a(I3
g286
tp2975
a(I0
g130
tp2976
a(I1
g182
tp2977
a(I2
g286
tp2978
a(I3
g286
tp2979
a(I0
g178
tp2980
a(I1
g130
tp2981
a(I2
g286
tp2982
a(I3
g286
tp2983
a(I0
g128
tp2984
a(I1
g128
tp2985
a(I2
g286
tp2986
a(I3
g286
tp2987
a(I0
g130
tp2988
a(I1
g130
tp2989
a(I2
g286
tp2990
a(I3
g286
tp2991
a(I0
g128
tp2992
a(I1
g178
tp2993
a(I2
g286
tp2994
a(I3
g286
tp2995
a(I0
g182
tp2996
a(I1
g128
tp2997
a(I2
g286
tp2998
a(I3
g286
tp2999
a(I0
g130
tp3000
a(I1
g182
tp3001
a(I2
g286
tp3002
a(I3
g286
tp3003
a(I0
g178
tp3004
a(I1
g130
tp3005
a(I2
g286
tp3006
a(I3
g286
tp3007
a(I0
g128
tp3008
a(I1
g178
tp3009
a(I2
g286
tp3010
a(I3
g286
tp3011
a(I0
g182
tp3012
a(I1
g128
tp3013
a(I2
g286
tp3014
a(I3
g286
tp3015
a(I0
g130
tp3016
a(I1
g130
tp3017
a(I2
g286
tp3018
a(I3
g286
tp3019
a(I0
g128
tp3020
a(I1
g182
tp3021
a(I2
g286
tp3022
a(I3
g286
tp3023
a(I0
g178
tp3024
a(I1
g128
tp3025
a(I2
g286
tp3026
a(I3
g286
tp3027
a(I0
g130
tp3028
a(I1
g178
tp3029
a(I2
g286
tp3030
a(I3
g286
tp3031
a(I0
g182
tp3032
a(I1
g182
tp3033
a(I2
g286
tp3034
a(I3
g286
tp3035
a(I0
g178
tp3036
a(I1
g130
tp3037
a(I2
g286
tp3038
a(I3
g286
tp3039
a(I0
g128
tp3040
a(I1
g128
tp3041
a(I2
g286
tp3042
a(I3
g286
tp3043
a(I0
g130
tp3044
a(I1
g178
tp3045
a(I2
g286
tp3046
a(I3
g286
tp3047
a(I0
g182
tp3048
a(I1
g182
tp3049
a(I2
g286
tp3050
a(I3
g286
tp3051
a(I0
g178
tp3052
a(I1
g178
tp3053
a(I2
g286
tp3054
a(I3
g286
tp3055
a(I0
g182
tp3056
a(I1
g130
tp3057
a(I2
g286
tp3058
a(I3
g286
tp3059
a(I0
g128
tp3060
a(I1
g128
tp3061
a(I2
g286
tp3062
a(I3
g286
tp3063
a(I0
g130
tp3064
a(I1
g130
tp3065
a(I2
g286
tp3066
a(I3
g286
tp3067
a(I0
g128
tp3068
a(I1
g128
tp3069
a(I2
g286
tp3070
a(I3
g286
tp3071
a(I0
g130
tp3072
a(I1
g130
tp3073
a(I2
g286
tp3074
a(I3
g286
tp3075
a(I0
g128
tp3076
a(I1
g128
tp3077
a(I2
g286
tp3078
a(I3
g286
tp3079
a(I0
g130
tp3080
a(I1
g130
tp3081
a(I2
g286
tp3082
a(I3
g286
tp3083
a(I0
g128
tp3084
a(I1
g182
tp3085
a(I2
g286
tp3086
a(I3
g286
tp3087
a(I0
g178
tp3088
a(I1
g128
tp3089
a(I2
g286
tp3090
a(I3
g286
tp3091
a(I0
g130
tp3092
a(I1
g130
tp3093
a(I2
g286
tp3094
a(I3
g286
tp3095
a(I0
g128
tp3096
a(I1
g128
tp3097
a(I2
g286
tp3098
a(I3
g286
tp3099
a(I0
g130
tp3100
a(I1
g130
tp3101
a(I2
g286
tp3102
a(I3
g286
tp3103
a(I0
g128
tp3104
a(I1
g178
tp3105
a(I2
g286
tp3106
a(I3
g286
tp3107
a(I0
g182
tp3108
a(I1
g128
tp3109
a(I2
g286
tp3110
a(I3
g286
tp3111
a(I0
g130
tp3112
a(I1
g182
tp3113
a(I2
g286
tp3114
a(I3
g286
tp3115
a(I0
g178
tp3116
a(I1
g178
tp3117
a(I2
g286
tp3118
a(I3
g286
tp3119
a(I0
g182
tp3120
a(I1
g130
tp3121
a(I2
g286
tp3122
a(I3
g286
tp3123
a(I0
g128
tp3124
a(I1
g182
tp3125
a(I2
g286
tp3126
a(I3
g286
tp3127
a(I0
g178
tp3128
a(I1
g128
tp3129
a(I2
g286
tp3130
a(I3
g286
tp3131
a(I0
g130
tp3132
as.