(dp1
S'agents'
p2
(lp3
(igame
Agent
p4
(dp5
S'index'
p6
I0
sba(igame
Agent
p7
(dp8
g6
I0
sba(igame
Agent
p9
(dp10
g6
I0
sba(igame
Agent
p11
(dp12
g6
I0
sbasS'length'
p13
I3000
sS'layout'
p14
(ilayout
Layout
p15
(dp16
S'capsules'
p17
(lp18
(I6
I5
tp19
a(I25
I10
tp20
asS'numGhosts'
p21
I4
sS'food'
p22
(igame
Grid
p23
(dp24
S'CELLS_PER_INT'
p25
I30
sS'width'
p26
I32
sS'data'
p27
(lp28
(lp29
I00
aI00
aI00
aI00
aI00
aI00
aI00
aI00
aI00
aI00
aI00
aI00
aI00
aI00
aI00
aI00
aa(lp30
I00
aI00
aI00
aI00
aI00
aI00
aI00
aI00
aI00
aI00
aI00
aI00
aI00
aI00
aI00
aI00
aa(lp31
I00
aI00
aI00
aI00
aI00
aI00
aI00
aI00
aI00
aI00
aI00
aI00
aI00
aI00
aI00
aI00
aa(lp32
I00
aI01
aI01
aI00
aI00
aI00
aI00
aI00
aI01
aI00
aI00
aI00
aI00
aI00
aI00
aI00
aa(lp33
I00
aI00
aI00
aI00
aI00
aI00
aI00
aI00
aI00
aI00
aI00
aI00
aI00
aI00
aI00
aI00
aa(lp34
I00
aI01
aI00
aI00
aI00
aI00
aI00
aI00
aI00
aI00
aI00
aI00
aI01
aI00
aI01
aI00
aa(lp35
I00
aI00
aI00
aI00
aI00
aI00
aI00
aI00
aI00
aI00
aI00
aI00
aI00
aI00
aI00
aI00
aa(lp36
I00
aI00
aI00
aI01
aI00
aI00
aI00
aI00
aI01
aI01
aI00
aI00
aI00
aI00
aI00
aI00
aa(lp37
I00
aI00
aI00
aI01
aI00
aI00
aI00
aI00
aI00
aI01
aI00
aI00
aI00
aI00
aI01
aI00
aa(lp38
I00
aI00
aI00
aI00
aI00
aI01
aI00
aI00
aI00
aI00
aI00
aI01
aI00
aI00
aI00
aI00
aa(lp39
I00
aI00
aI00
aI01
aI00
aI00
aI00
aI01
aI00
aI01
aI00
aI01
aI00
aI00
aI01
aI00
aa(lp40
I00
aI00
aI00
aI00
aI00
aI00
aI00
aI00
aI00
aI00
aI00
aI00
aI00
aI00
aI00
aI00
aa(lp41
I00
aI00
aI00
aI00
aI00
aI00
aI00
aI00
aI00
aI00
aI00
aI00
aI00
aI00
aI00
aI00
aa(lp42
I00
aI00
aI00
aI00
aI00
aI00
aI00
aI00
aI00
aI00
aI00
aI00
aI00
aI00
aI00
aI00
aa(lp43
I00
aI00
aI00
aI00
aI00
aI00
aI00
aI00
aI00
aI01
aI00
aI00
aI00
aI00
aI00
aI00
aa(lp44
I00
aI00
aI00
aI00
aI00
aI00
aI00
aI00
aI00
aI00
aI00
aI00
aI00
aI00
aI00
aI00
aa(lp45
I00
aI00
aI00
aI00
aI00
aI00
aI00
aI00
aI00
aI00
aI00
aI00
aI00
aI00
aI00
aI00
aa(lp46
I00
aI00
aI00
aI00
aI00
aI00
aI01
aI00
aI00
aI00
aI00
aI00
aI00
aI00
aI00
aI00
aa(lp47
I00
aI00
aI00
aI00
aI00
aI00
aI00
aI00
aI00
aI00
aI00
aI00
aI00
aI00
aI00
aI00
aa(lp48
I00
aI00
aI00
aI00
aI00
aI00
aI00
aI00
aI00
aI00
aI00
aI00
aI00
aI00
aI00
aI00
aa(lp49
I00
aI00
aI00
aI00
aI00
aI00
aI00
aI00
aI00
aI00
aI00
aI00
aI00
aI00
aI00
aI00
aa(lp50
I00
aI01
aI00
aI00
aI01
aI00
aI01
aI00
aI01
aI00
aI00
aI00
aI01
aI00
aI00
aI00
aa(lp51
I00
aI00
aI00
aI00
aI01
aI00
aI00
aI00
aI00
aI00
aI01
aI00
aI00
aI00
aI00
aI00
aa(lp52
I00
aI01
aI00
aI00
aI00
aI00
aI01
aI00
aI00
aI00
aI00
aI00
aI01
aI00
aI00
aI00
aa(lp53
I00
aI00
aI00
aI00
aI00
aI00
aI01
aI01
aI00
aI00
aI00
aI00
aI01
aI00
aI00
aI00
aa(lp54
I00
aI00
aI00
aI00
aI00
aI00
aI00
aI00
aI00
aI00
aI00
aI00
aI00
aI00
aI00
aI00
aa(lp55
I00
aI01
aI00
aI01
aI00
aI00
aI00
aI00
aI00
aI00
aI00
aI00
aI00
aI00
aI01
aI00
aa(lp56
I00
aI00
aI00
aI00
aI00
aI00
aI00
aI00
aI00
aI00
aI00
aI00
aI00
aI00
aI00
aI00
aa(lp57
I00
aI00
aI00
aI00
aI00
aI00
aI00
aI01
aI00
aI00
aI00
aI00
aI00
aI01
aI01
aI00
aa(lp58
I00
aI00
aI00
aI00
aI00
aI00
aI00
aI00
aI00
aI00
aI00
aI00
aI00
aI00
aI00
aI00
aa(lp59
I00
aI00
aI00
aI00
aI00
aI00
aI00
aI00
aI00
aI00
aI00
aI00
aI00
aI00
aI00
aI00
aa(lp60
I00
aI00
aI00
aI00
aI00
aI00
aI00
aI00
aI00
aI00
aI00
aI00
aI00
aI00
aI00
aI00
aasS'height'
p61
I16
sbsS'agentPositions'
p62
(lp63
(I00
(I1
I2
tp64
tp65
a(I00
(I30
I13
tp66
tp67
a(I00
(I1
I1
tp68
tp69
a(I00
(I30
I14
tp70
tp71
asg61
I16
sg26
I32
sS'walls'
p72
(igame
Grid
p73
(dp74
g25
I30
sg26
I32
sg27
(lp75
(lp76
I01
aI01
aI01
aI01
aI01
aI01
aI01
aI01
aI01
aI01
aI01
aI01
aI01
aI01
aI01
aI01
aa(lp77
I01
aI00
aI00
aI00
aI00
aI00
aI00
aI00
aI00
aI00
aI00
aI00
aI00
aI00
aI00
aI01
aa(lp78
I01
aI01
aI01
aI01
aI01
aI01
aI01
aI01
aI01
aI01
aI01
aI01
aI01
aI01
aI00
aI01
aa(lp79
I01
aI00
aI00
aI00
aI00
aI00
aI00
aI01
aI00
aI01
aI00
aI00
aI00
aI00
aI00
aI01
aa(lp80
I01
aI01
aI01
aI01
aI01
aI01
aI00
aI00
aI00
aI00
aI00
aI01
aI01
aI01
aI01
aI01
aa(lp81
I01
aI00
aI00
aI00
aI00
aI00
aI00
aI00
aI01
aI01
aI00
aI01
aI00
aI01
aI00
aI01
aa(lp82
I01
aI01
aI00
aI01
aI01
aI00
aI01
aI01
aI01
aI00
aI00
aI00
aI00
aI00
aI00
aI01
aa(lp83
I01
aI00
aI00
aI00
aI01
aI00
aI00
aI01
aI00
aI00
aI01
aI01
aI01
aI00
aI01
aI01
aa(lp84
I01
aI00
aI01
aI00
aI01
aI01
aI00
aI01
aI01
aI00
aI01
aI00
aI00
aI00
aI00
aI01
aa(lp85
I01
aI00
aI01
aI01
aI01
aI00
aI00
aI01
aI01
aI01
aI01
aI00
aI01
aI00
aI01
aI01
aa(lp86
I01
aI00
aI01
aI00
aI01
aI01
aI00
aI00
aI01
aI00
aI01
aI00
aI01
aI00
aI00
aI01
aa(lp87
I01
aI00
aI00
aI00
aI00
aI01
aI00
aI01
aI01
aI00
aI01
aI01
aI01
aI00
aI01
aI01
aa(lp88
I01
aI01
aI00
aI01
aI00
aI01
aI00
aI00
aI00
aI00
aI00
aI00
aI00
aI00
aI00
aI01
aa(lp89
I01
aI00
aI00
aI01
aI00
aI00
aI00
aI00
aI00
aI01
aI01
aI01
aI00
aI01
aI00
aI01
aa(lp90
I01
aI00
aI01
aI01
aI01
aI00
aI01
aI00
aI00
aI00
aI01
aI00
aI00
aI01
aI00
aI01
aa(lp91
I01
aI00
aI00
aI01
aI00
aI00
aI01
aI00
aI00
aI01
aI01
aI00
aI00
aI00
aI00
aI01
aa(lp92
I01
aI00
aI00
aI00
aI00
aI01
aI01
aI00
aI00
aI01
aI00
aI00
aI01
aI00
aI00
aI01
aa(lp93
I01
aI00
aI01
aI00
aI00
aI01
aI00
aI00
aI00
aI01
aI00
aI01
aI01
aI01
aI00
aI01
aa(lp94
I01
aI00
aI01
aI00
aI01
aI01
aI01
aI00
aI00
aI00
aI00
aI00
aI01
aI00
aI00
aI01
aa(lp95
I01
aI00
aI00
aI00
aI00
aI00
aI00
aI00
aI00
aI00
aI01
aI00
aI01
aI00
aI01
aI01
aa(lp96
I01
aI01
aI00
aI01
aI01
aI01
aI00
aI01
aI01
aI00
aI01
aI00
aI00
aI00
aI00
aI01
aa(lp97
I01
aI00
aI00
aI01
aI00
aI01
aI00
aI01
aI00
aI00
aI01
aI01
aI00
aI01
aI00
aI01
aa(lp98
I01
aI01
aI00
aI01
aI00
aI01
aI01
aI01
aI01
aI00
aI00
aI01
aI01
aI01
aI00
aI01
aa(lp99
I01
aI00
aI00
aI00
aI00
aI01
aI00
aI01
aI01
aI00
aI01
aI01
aI00
aI01
aI00
aI01
aa(lp100
I01
aI01
aI00
aI01
aI01
aI01
aI00
aI00
aI01
aI00
aI00
aI01
aI00
aI00
aI00
aI01
aa(lp101
I01
aI00
aI00
aI00
aI00
aI00
aI00
aI01
aI01
aI01
aI00
aI01
aI01
aI00
aI01
aI01
aa(lp102
I01
aI00
aI01
aI00
aI01
aI00
aI01
aI01
aI00
aI00
aI00
aI00
aI00
aI00
aI00
aI01
aa(lp103
I01
aI01
aI01
aI01
aI01
aI00
aI00
aI00
aI00
aI00
aI01
aI01
aI01
aI01
aI01
aI01
aa(lp104
I01
aI00
aI00
aI00
aI00
aI00
aI01
aI00
aI01
aI00
aI00
aI00
aI00
aI00
aI00
aI01
aa(lp105
I01
aI00
aI01
aI01
aI01
aI01
aI01
aI01
aI01
aI01
aI01
aI01
aI01
aI01
aI01
aI01
aa(lp106
I01
aI00
aI00
aI00
aI00
aI00
aI00
aI00
aI00
aI00
aI00
aI00
aI00
aI00
aI00
aI01
aa(lp107
I01
aI01
aI01
aI01
aI01
aI01
aI01
aI01
aI01
aI01
aI01
aI01
aI01
aI01
aI01
aI01
aasg61
I16
sbsS'layoutText'
p108
(lp109
S'%%%%%%%%%%%%%%%%%%%%%%%%%%%%%%%%'
p110
aS'%   %. %.%.%       %     %.%.%4%'
p111
aS'% % %%       %%  %   %%%   %.%2%'
p112
aS'% % %. % %%%    %%%% .%..% % % %'
p113
aS'% % %% % ..% %   %   %%%%% % % %'
p114
aS'% %    %%%%% %%%   %%%.% o % % %'
p115
aS'% %% % ..%.  %.%%%       %   % %'
p116
aS'% %. %%.%%%%        %.%%%%  %% %'
p117
aS'% %%  %%%%.%        %%%%.%% .% %'
p118
aS'% %   %       %%%.%  .%.. % %% %'
p119
aS'% % % o %.%%%   %%% %%%%%    % %'
p120
aS'% % % %%%%%   %   % %.. % %% % %'
p121
aS'% % % %..%. %%%%    %%% % .% % %'
p122
aS'%1%.%   %%%   %  %%       %% % %'
p123
aS'%3%.%.%     %       %.%.% .%   %'
p124
aS'%%%%%%%%%%%%%%%%%%%%%%%%%%%%%%%%'
p125
asbsS'actions'
p126
(lp127
(I1
S'South'
p128
tp129
a(I2
S'North'
p130
tp131
a(I3
g128
tp132
a(I0
g130
tp133
a(I1
g128
tp134
a(I2
g130
tp135
a(I3
g128
tp136
a(I0
g130
tp137
a(I1
g128
tp138
a(I2
g130
tp139
a(I3
g128
tp140
a(I0
g130
tp141
a(I1
g128
tp142
a(I2
g130
tp143
a(I3
g128
tp144
a(I0
g130
tp145
a(I1
g128
tp146
a(I2
g130
tp147
a(I3
g128
tp148
a(I0
g130
tp149
a(I1
g128
tp150
a(I2
g130
tp151
a(I3
g128
tp152
a(I0
g130
tp153
a(I1
g128
tp154
a(I2
g130
tp155
a(I3
g128
tp156
a(I0
g130
tp157
a(I1
g128
tp158
a(I2
g130
tp159
a(I3
g128
tp160
a(I0
g130
tp161
a(I1
g128
tp162
a(I2
g130
tp163
a(I3
g128
tp164
a(I0
g130
tp165
a(I1
g128
tp166
a(I2
g130
tp167
a(I3
g128
tp168
a(I0
g130
tp169
a(I1
g128
tp170
a(I2
g130
tp171
a(I3
g128
tp172
a(I0
g130
tp173
a(I1
g128
tp174
a(I2
g130
tp175
a(I3
g128
tp176
a(I0
g130
tp177
a(I1
S'West'
p178
tp179
a(I2
g130
tp180
a(I3
g128
tp181
a(I0
S'East'
p182
tp183
a(I1
g178
tp184
a(I2
g182
tp185
a(I3
g178
tp186
a(I0
g182
tp187
a(I1
g130
tp188
a(I2
g182
tp189
a(I3
g178
tp190
a(I0
g128
tp191
a(I1
g130
tp192
a(I2
g128
tp193
a(I3
g130
tp194
a(I0
g128
tp195
a(I1
g130
tp196
a(I2
g128
tp197
a(I3
g130
tp198
a(I0
g128
tp199
a(I1
g130
tp200
a(I2
g128
tp201
a(I3
g130
tp202
a(I0
g128
tp203
a(I1
g178
tp204
a(I2
g128
tp205
a(I3
g130
tp206
a(I0
g182
tp207
a(I1
g130
tp208
a(I2
g182
tp209
a(I3
g178
tp210
a(I0
g182
tp211
a(I1
g130
tp212
a(I2
g128
tp213
a(I3
g130
tp214
a(I0
g182
tp215
a(I1
g130
tp216
a(I2
g128
tp217
a(I3
g130
tp218
a(I0
g130
tp219
a(I1
g178
tp220
a(I2
g128
tp221
a(I3
g130
tp222
a(I0
g130
tp223
a(I1
g130
tp224
a(I2
g182
tp225
a(I3
g130
tp226
a(I0
g130
tp227
a(I1
g130
tp228
a(I2
g128
tp229
a(I3
g178
tp230
a(I0
g182
tp231
a(I1
g178
tp232
a(I2
g128
tp233
a(I3
g130
tp234
a(I0
g182
tp235
a(I1
g178
tp236
a(I2
g182
tp237
a(I3
g178
tp238
a(I0
g182
tp239
a(I1
g128
tp240
a(I2
g182
tp241
a(I3
g178
tp242
a(I0
g182
tp243
a(I1
g178
tp244
a(I2
g130
tp245
a(I3
g128
tp246
a(I0
g182
tp247
a(I1
g178
tp248
a(I2
g182
tp249
a(I3
g178
tp250
a(I0
g182
tp251
a(I1
g178
tp252
a(I2
g182
tp253
a(I3
g178
tp254
a(I0
g128
tp255
a(I1
g178
tp256
a(I2
g182
tp257
a(I3
g178
tp258
a(I0
g128
tp259
a(I1
g178
tp260
a(I2
g182
tp261
a(I3
g178
tp262
a(I0
g128
tp263
a(I1
g178
tp264
a(I2
g182
tp265
a(I3
g178
tp266
a(I0
g128
tp267
a(I1
g128
tp268
a(I2
g182
tp269
a(I3
g128
tp270
a(I0
g128
tp271
a(I1
g178
tp272
a(I2
g130
tp273
a(I3
g178
tp274
a(I0
g128
tp275
a(I1
g178
tp276
a(I2
g130
tp277
a(I3
g178
tp278
a(I0
g182
tp279
a(I1
g178
tp280
a(I2
g182
tp281
a(I3
g178
tp282
a(I0
g130
tp283
a(I1
g128
tp284
a(I2
g128
tp285
a(I3
g182
tp286
a(I0
g128
tp287
a(I1
g130
tp288
a(I2
g130
tp289
a(I3
g178
tp290
a(I0
g182
tp291
a(I1
g128
tp292
a(I2
g182
tp293
a(I3
S'Stop'
p294
tp295
a(I0
g182
tp296
a(I1
g128
tp297
a(I2
g294
tp298
a(I3
g294
tp299
a(I0
g178
tp300
a(I1
g128
tp301
a(I2
g294
tp302
a(I3
g294
tp303
a(I0
g178
tp304
a(I1
g128
tp305
a(I2
g294
tp306
a(I3
g294
tp307
a(I0
g128
tp308
a(I1
g128
tp309
a(I2
g294
tp310
a(I3
g294
tp311
a(I0
g128
tp312
a(I1
g128
tp313
a(I2
g294
tp314
a(I3
g294
tp315
a(I0
g182
tp316
a(I1
g128
tp317
a(I2
g294
tp318
a(I3
g294
tp319
a(I0
g182
tp320
a(I1
g128
tp321
a(I2
g294
tp322
a(I3
g294
tp323
a(I0
g128
tp324
a(I1
g128
tp325
a(I2
g294
tp326
a(I3
g294
tp327
a(I0
g182
tp328
a(I1
g128
tp329
a(I2
g294
tp330
a(I3
g294
tp331
a(I0
g182
tp332
a(I1
g128
tp333
a(I2
g294
tp334
a(I3
g294
tp335
a(I0
g128
tp336
a(I1
g128
tp337
a(I2
g294
tp338
a(I3
g294
tp339
a(I0
g182
tp340
a(I1
g128
tp341
a(I2
g294
tp342
a(I3
g294
tp343
a(I0
g182
tp344
a(I1
g178
tp345
a(I2
g294
tp346
a(I3
g294
tp347
a(I0
g128
tp348
a(I1
g178
tp349
a(I2
g294
tp350
a(I3
g294
tp351
a(I0
g182
tp352
a(I1
g130
tp353
a(I2
g294
tp354
a(I3
g294
tp355
a(I0
g182
tp356
a(I1
g130
tp357
a(I2
g294
tp358
a(I3
g294
tp359
a(I0
g128
tp360
a(I1
g130
tp361
a(I2
g294
tp362
a(I3
g294
tp363
a(I0
g130
tp364
a(I1
g130
tp365
a(I2
g294
tp366
a(I3
g294
tp367
a(I0
g182
tp368
a(I1
g178
tp369
a(I2
g294
tp370
a(I3
g294
tp371
a(I0
g182
tp372
a(I1
g178
tp373
a(I2
g294
tp374
a(I3
g294
tp375
a(I0
g128
tp376
a(I1
g178
tp377
a(I2
g294
tp378
a(I3
g294
tp379
a(I0
g130
tp380
a(I1
g128
tp381
a(I2
g294
tp382
a(I3
g294
tp383
a(I0
g130
tp384
a(I1
g128
tp385
a(I2
g294
tp386
a(I3
g294
tp387
a(I0
g130
tp388
a(I1
g128
tp389
a(I2
g294
tp390
a(I3
g294
tp391
a(I0
g178
tp392
a(I1
g178
tp393
a(I2
g294
tp394
a(I3
g294
tp395
a(I0
g178
tp396
a(I1
g178
tp397
a(I2
g294
tp398
a(I3
g294
tp399
a(I0
g182
tp400
a(I1
g130
tp401
a(I2
g294
tp402
a(I3
g294
tp403
a(I0
g182
tp404
a(I1
g130
tp405
a(I2
g294
tp406
a(I3
g294
tp407
a(I0
g130
tp408
a(I1
g128
tp409
a(I2
g294
tp410
a(I3
g294
tp411
a(I0
g130
tp412
a(I1
g128
tp413
a(I2
g294
tp414
a(I3
g294
tp415
a(I0
g130
tp416
a(I1
g178
tp417
a(I2
g294
tp418
a(I3
g294
tp419
a(I0
g130
tp420
a(I1
g178
tp421
a(I2
g294
tp422
a(I3
g294
tp423
a(I0
g130
tp424
a(I1
g178
tp425
a(I2
g294
tp426
a(I3
g294
tp427
a(I0
g130
tp428
a(I1
g178
tp429
a(I2
g294
tp430
a(I3
g294
tp431
a(I0
g130
tp432
a(I1
g128
tp433
a(I2
g294
tp434
a(I3
g294
tp435
a(I0
g130
tp436
a(I1
g178
tp437
a(I2
g294
tp438
a(I3
g294
tp439
a(I0
g130
tp440
a(I1
g178
tp441
a(I2
g294
tp442
a(I3
g294
tp443
a(I0
g130
tp444
a(I1
g178
tp445
a(I2
g294
tp446
a(I3
g294
tp447
a(I0
g130
tp448
a(I1
g178
tp449
a(I2
g128
tp450
a(I3
g128
tp451
a(I0
g130
tp452
a(I1
g178
tp453
a(I2
g178
tp454
a(I3
g182
tp455
a(I0
g182
tp456
a(I1
g178
tp457
a(I2
g178
tp458
a(I3
g178
tp459
a(I0
g182
tp460
a(I1
g130
tp461
a(I2
g128
tp462
a(I3
g294
tp463
a(I0
g128
tp464
a(I1
g178
tp465
a(I2
g128
tp466
a(I3
g182
tp467
a(I0
g128
tp468
a(I1
g178
tp469
a(I2
g128
tp470
a(I3
g178
tp471
a(I0
g128
tp472
a(I1
g128
tp473
a(I2
g178
tp474
a(I3
g182
tp475
a(I0
g128
tp476
a(I1
g178
tp477
a(I2
g178
tp478
a(I3
g178
tp479
a(I0
g182
tp480
a(I1
g178
tp481
a(I2
g128
tp482
a(I3
g182
tp483
a(I0
g128
tp484
a(I1
g178
tp485
a(I2
g128
tp486
a(I3
g178
tp487
a(I0
g128
tp488
a(I1
g178
tp489
a(I2
g128
tp490
a(I3
g294
tp491
a(I0
g128
tp492
a(I1
g130
tp493
a(I2
g178
tp494
a(I3
g130
tp495
a(I0
g182
tp496
a(I1
g130
tp497
a(I2
g178
tp498
a(I3
g128
tp499
a(I0
g128
tp500
a(I1
g182
tp501
a(I2
g178
tp502
a(I3
g130
tp503
a(I0
g128
tp504
a(I1
g178
tp505
a(I2
g178
tp506
a(I3
g128
tp507
a(I0
g128
tp508
a(I1
g128
tp509
a(I2
g130
tp510
a(I3
g130
tp511
a(I0
g128
tp512
a(I1
g128
tp513
a(I2
g128
tp514
a(I3
g128
tp515
a(I0
g128
tp516
a(I1
g128
tp517
a(I2
g182
tp518
a(I3
g130
tp519
a(I0
g182
tp520
a(I1
g128
tp521
a(I2
g182
tp522
a(I3
g128
tp523
a(I0
g182
tp524
a(I1
g128
tp525
a(I2
g182
tp526
a(I3
g182
tp527
a(I0
g128
tp528
a(I1
g128
tp529
a(I2
g182
tp530
a(I3
g178
tp531
a(I0
g182
tp532
a(I1
g128
tp533
a(I2
g130
tp534
a(I3
g182
tp535
a(I0
g182
tp536
a(I1
g128
tp537
a(I2
g130
tp538
a(I3
g178
tp539
a(I0
g182
tp540
a(I1
g128
tp541
a(I2
g130
tp542
a(I3
g130
tp543
a(I0
g182
tp544
a(I1
g128
tp545
a(I2
g182
tp546
a(I3
g128
tp547
a(I0
g130
tp548
a(I1
g128
tp549
a(I2
g182
tp550
a(I3
g130
tp551
a(I0
g182
tp552
a(I1
g128
tp553
a(I2
g130
tp554
a(I3
g128
tp555
a(I0
g182
tp556
a(I1
g128
tp557
a(I2
g130
tp558
a(I3
g130
tp559
a(I0
g128
tp560
a(I1
g178
tp561
a(I2
g130
tp562
a(I3
g128
tp563
a(I0
g182
tp564
a(I1
g178
tp565
a(I2
g182
tp566
a(I3
g294
tp567
a(I0
g182
tp568
a(I1
g130
tp569
a(I2
g182
tp570
a(I3
g294
tp571
a(I0
g182
tp572
a(I1
g130
tp573
a(I2
g294
tp574
a(I3
g294
tp575
a(I0
g182
tp576
a(I1
g130
tp577
a(I2
g294
tp578
a(I3
g294
tp579
a(I0
g182
tp580
a(I1
g130
tp581
a(I2
g294
tp582
a(I3
g294
tp583
a(I0
g182
tp584
a(I1
g178
tp585
a(I2
g294
tp586
a(I3
g294
tp587
a(I0
g130
tp588
a(I1
g178
tp589
a(I2
g294
tp590
a(I3
g294
tp591
a(I0
g130
tp592
a(I1
g178
tp593
a(I2
g294
tp594
a(I3
g294
tp595
a(I0
g130
tp596
a(I1
g128
tp597
a(I2
g294
tp598
a(I3
g294
tp599
a(I0
g130
tp600
a(I1
g128
tp601
a(I2
g294
tp602
a(I3
g294
tp603
a(I0
g130
tp604
a(I1
g128
tp605
a(I2
g294
tp606
a(I3
g294
tp607
a(I0
g182
tp608
a(I1
g178
tp609
a(I2
g294
tp610
a(I3
g294
tp611
a(I0
g182
tp612
a(I1
g178
tp613
a(I2
g294
tp614
a(I3
g294
tp615
a(I0
g178
tp616
a(I1
g178
tp617
a(I2
g294
tp618
a(I3
g294
tp619
a(I0
g178
tp620
a(I1
g178
tp621
a(I2
g294
tp622
a(I3
g294
tp623
a(I0
g130
tp624
a(I1
g178
tp625
a(I2
g294
tp626
a(I3
g294
tp627
a(I0
g294
tp628
a(I1
g178
tp629
a(I2
g294
tp630
a(I3
g294
tp631
a(I0
g294
tp632
a(I1
g128
tp633
a(I2
g294
tp634
a(I3
g294
tp635
a(I0
g294
tp636
a(I1
g178
tp637
a(I2
g294
tp638
a(I3
g294
tp639
a(I0
g294
tp640
a(I1
g178
tp641
a(I2
g294
tp642
a(I3
g294
tp643
a(I0
g294
tp644
a(I1
g178
tp645
a(I2
g294
tp646
a(I3
g294
tp647
a(I0
g294
tp648
a(I1
g178
tp649
a(I2
g178
tp650
a(I3
g182
tp651
a(I0
g130
tp652
a(I1
g178
tp653
a(I2
g178
tp654
a(I3
g130
tp655
a(I0
g130
tp656
a(I1
g178
tp657
a(I2
g128
tp658
a(I3
g182
tp659
a(I0
g182
tp660
a(I1
g130
tp661
a(I2
g128
tp662
a(I3
g130
tp663
a(I0
g182
tp664
a(I1
g178
tp665
a(I2
g128
tp666
a(I3
g182
tp667
a(I0
g128
tp668
a(I1
g178
tp669
a(I2
g178
tp670
a(I3
g182
tp671
a(I0
g294
tp672
a(I1
g128
tp673
a(I2
g178
tp674
a(I3
g182
tp675
a(I0
g294
tp676
a(I1
g178
tp677
a(I2
g128
tp678
a(I3
g128
tp679
a(I0
g130
tp680
a(I1
g182
tp681
a(I2
g128
tp682
a(I3
g130
tp683
a(I0
g130
tp684
a(I1
g294
tp685
a(I2
g128
tp686
a(I3
g178
tp687
a(I0
g130
tp688
a(I1
g128
tp689
a(I2
g130
tp690
a(I3
g178
tp691
a(I0
g130
tp692
a(I1
g128
tp693
a(I2
g130
tp694
a(I3
g128
tp695
a(I0
g130
tp696
a(I1
g128
tp697
a(I2
g130
tp698
a(I3
g128
tp699
a(I0
g130
tp700
a(I1
g128
tp701
a(I2
g182
tp702
a(I3
g178
tp703
a(I0
g130
tp704
a(I1
g128
tp705
a(I2
g182
tp706
a(I3
g178
tp707
a(I0
g130
tp708
a(I1
g128
tp709
a(I2
g130
tp710
a(I3
g178
tp711
a(I0
g130
tp712
a(I1
g128
tp713
a(I2
g130
tp714
a(I3
g294
tp715
a(I0
g130
tp716
a(I1
g128
tp717
a(I2
g130
tp718
a(I3
g182
tp719
a(I0
g130
tp720
a(I1
g128
tp721
a(I2
g182
tp722
a(I3
g178
tp723
a(I0
g130
tp724
a(I1
g128
tp725
a(I2
g182
tp726
a(I3
g294
tp727
a(I0
g182
tp728
a(I1
g128
tp729
a(I2
g294
tp730
a(I3
g294
tp731
a(I0
g182
tp732
a(I1
g128
tp733
a(I2
g294
tp734
a(I3
g294
tp735
a(I0
g128
tp736
a(I1
g178
tp737
a(I2
g294
tp738
a(I3
g294
tp739
a(I0
g128
tp740
a(I1
g178
tp741
a(I2
g294
tp742
a(I3
g294
tp743
a(I0
g128
tp744
a(I1
g130
tp745
a(I2
g294
tp746
a(I3
g294
tp747
a(I0
g128
tp748
a(I1
g130
tp749
a(I2
g294
tp750
a(I3
g294
tp751
a(I0
g182
tp752
a(I1
g130
tp753
a(I2
g294
tp754
a(I3
g294
tp755
a(I0
g128
tp756
a(I1
g130
tp757
a(I2
g294
tp758
a(I3
g294
tp759
a(I0
g128
tp760
a(I1
g178
tp761
a(I2
g294
tp762
a(I3
g294
tp763
a(I0
g128
tp764
a(I1
g178
tp765
a(I2
g294
tp766
a(I3
g294
tp767
a(I0
g128
tp768
a(I1
g178
tp769
a(I2
g294
tp770
a(I3
g294
tp771
a(I0
g182
tp772
a(I1
g128
tp773
a(I2
g294
tp774
a(I3
g294
tp775
a(I0
g128
tp776
a(I1
g128
tp777
a(I2
g294
tp778
a(I3
g294
tp779
a(I0
g128
tp780
a(I1
g128
tp781
a(I2
g294
tp782
a(I3
g294
tp783
a(I0
g128
tp784
a(I1
g178
tp785
a(I2
g294
tp786
a(I3
g294
tp787
a(I0
g128
tp788
a(I1
g178
tp789
a(I2
g294
tp790
a(I3
g294
tp791
a(I0
g182
tp792
a(I1
g178
tp793
a(I2
g294
tp794
a(I3
g294
tp795
a(I0
g182
tp796
a(I1
g178
tp797
a(I2
g294
tp798
a(I3
g294
tp799
a(I0
g128
tp800
a(I1
g178
tp801
a(I2
g294
tp802
a(I3
g294
tp803
a(I0
g182
tp804
a(I1
g178
tp805
a(I2
g294
tp806
a(I3
g294
tp807
a(I0
g182
tp808
a(I1
g128
tp809
a(I2
g294
tp810
a(I3
g294
tp811
a(I0
g182
tp812
a(I1
g178
tp813
a(I2
g294
tp814
a(I3
g294
tp815
a(I0
g182
tp816
a(I1
g178
tp817
a(I2
g294
tp818
a(I3
g294
tp819
a(I0
g130
tp820
a(I1
g178
tp821
a(I2
g294
tp822
a(I3
g294
tp823
a(I0
g130
tp824
a(I1
g178
tp825
a(I2
g178
tp826
a(I3
g130
tp827
a(I0
g128
tp828
a(I1
g178
tp829
a(I2
g178
tp830
a(I3
g128
tp831
a(I0
g182
tp832
a(I1
g178
tp833
a(I2
g128
tp834
a(I3
g294
tp835
a(I0
g182
tp836
a(I1
g294
tp837
a(I2
g128
tp838
a(I3
g294
tp839
a(I0
g128
tp840
a(I1
g128
tp841
a(I2
g130
tp842
a(I3
g130
tp843
a(I0
g182
tp844
a(I1
g128
tp845
a(I2
g130
tp846
a(I3
g128
tp847
a(I0
g182
tp848
a(I1
g128
tp849
a(I2
g182
tp850
a(I3
g130
tp851
a(I0
g182
tp852
a(I1
g128
tp853
a(I2
g130
tp854
a(I3
g182
tp855
a(I0
g182
tp856
a(I1
g128
tp857
a(I2
g182
tp858
a(I3
g178
tp859
a(I0
g182
tp860
a(I1
g128
tp861
a(I2
g294
tp862
a(I3
g294
tp863
a(I0
g182
tp864
a(I1
g128
tp865
a(I2
g294
tp866
a(I3
g294
tp867
a(I0
g130
tp868
a(I1
g128
tp869
a(I2
g294
tp870
a(I3
g294
tp871
a(I0
g182
tp872
a(I1
g128
tp873
a(I2
g294
tp874
a(I3
g294
tp875
a(I0
g182
tp876
a(I1
g128
tp877
a(I2
g294
tp878
a(I3
g294
tp879
a(I0
g182
tp880
a(I1
g128
tp881
a(I2
g294
tp882
a(I3
g294
tp883
a(I0
g182
tp884
a(I1
g128
tp885
a(I2
g294
tp886
a(I3
g294
tp887
a(I0
g182
tp888
a(I1
g178
tp889
a(I2
g294
tp890
a(I3
g294
tp891
a(I0
g182
tp892
a(I1
g178
tp893
a(I2
g294
tp894
a(I3
g294
tp895
a(I0
g128
tp896
a(I1
g130
tp897
a(I2
g294
tp898
a(I3
g294
tp899
a(I0
g182
tp900
a(I1
g130
tp901
a(I2
g294
tp902
a(I3
g294
tp903
a(I0
g178
tp904
a(I1
g130
tp905
a(I2
g294
tp906
a(I3
g294
tp907
a(I0
g130
tp908
a(I1
g130
tp909
a(I2
g294
tp910
a(I3
g294
tp911
a(I0
g130
tp912
a(I1
g178
tp913
a(I2
g294
tp914
a(I3
g294
tp915
a(I0
g182
tp916
a(I1
g178
tp917
a(I2
g294
tp918
a(I3
g294
tp919
a(I0
g178
tp920
a(I1
g178
tp921
a(I2
g294
tp922
a(I3
g294
tp923
a(I0
g128
tp924
a(I1
g128
tp925
a(I2
g294
tp926
a(I3
g294
tp927
a(I0
g178
tp928
a(I1
g128
tp929
a(I2
g294
tp930
a(I3
g294
tp931
a(I0
g178
tp932
a(I1
g128
tp933
a(I2
g294
tp934
a(I3
g294
tp935
a(I0
g178
tp936
a(I1
g178
tp937
a(I2
g294
tp938
a(I3
g294
tp939
a(I0
g178
tp940
a(I1
g178
tp941
a(I2
g294
tp942
a(I3
g294
tp943
a(I0
g178
tp944
a(I1
g178
tp945
a(I2
g294
tp946
a(I3
g294
tp947
a(I0
g178
tp948
a(I1
g178
tp949
a(I2
g294
tp950
a(I3
g294
tp951
a(I0
g130
tp952
a(I1
g178
tp953
a(I2
g294
tp954
a(I3
g294
tp955
a(I0
g130
tp956
a(I1
g178
tp957
a(I2
g294
tp958
a(I3
g294
tp959
a(I0
g130
tp960
a(I1
g130
tp961
a(I2
g294
tp962
a(I3
g294
tp963
a(I0
g130
tp964
a(I1
g130
tp965
a(I2
g294
tp966
a(I3
g294
tp967
a(I0
g130
tp968
a(I1
g130
tp969
a(I2
g294
tp970
a(I3
g294
tp971
a(I0
g130
tp972
a(I1
g130
tp973
a(I2
g294
tp974
a(I3
g294
tp975
a(I0
g130
tp976
a(I1
g130
tp977
a(I2
g294
tp978
a(I3
g294
tp979
a(I0
g182
tp980
a(I1
g130
tp981
a(I2
g294
tp982
a(I3
g294
tp983
a(I0
g182
tp984
a(I1
g130
tp985
a(I2
g294
tp986
a(I3
g294
tp987
a(I0
g182
tp988
a(I1
g182
tp989
a(I2
g294
tp990
a(I3
g294
tp991
a(I0
g182
tp992
a(I1
g182
tp993
a(I2
g294
tp994
a(I3
g294
tp995
a(I0
g294
tp996
a(I1
g182
tp997
a(I2
g294
tp998
a(I3
g294
tp999
a(I0
g182
tp1000
a(I1
g182
tp1001
a(I2
g294
tp1002
a(I3
g294
tp1003
a(I0
g130
tp1004
a(I1
g182
tp1005
a(I2
g294
tp1006
a(I3
g294
tp1007
a(I0
g182
tp1008
a(I1
g178
tp1009
a(I2
g294
tp1010
a(I3
g294
tp1011
a(I0
g178
tp1012
a(I1
g178
tp1013
a(I2
g294
tp1014
a(I3
g294
tp1015
a(I0
g128
tp1016
a(I1
g178
tp1017
a(I2
g294
tp1018
a(I3
g294
tp1019
a(I0
g178
tp1020
a(I1
g178
tp1021
a(I2
g294
tp1022
a(I3
g294
tp1023
a(I0
g178
tp1024
a(I1
g178
tp1025
a(I2
g294
tp1026
a(I3
g294
tp1027
a(I0
g130
tp1028
a(I1
g178
tp1029
a(I2
g294
tp1030
a(I3
g294
tp1031
a(I0
g128
tp1032
a(I1
g130
tp1033
a(I2
g294
tp1034
a(I3
g294
tp1035
a(I0
g178
tp1036
a(I1
g178
tp1037
a(I2
g294
tp1038
a(I3
g294
tp1039
a(I0
g178
tp1040
a(I1
g178
tp1041
a(I2
g294
tp1042
a(I3
g294
tp1043
a(I0
g178
tp1044
a(I1
g130
tp1045
a(I2
g294
tp1046
a(I3
g294
tp1047
a(I0
g178
tp1048
a(I1
g178
tp1049
a(I2
g178
tp1050
a(I3
g182
tp1051
a(I0
g128
tp1052
a(I1
g130
tp1053
a(I2
g178
tp1054
a(I3
g294
tp1055
a(I0
g128
tp1056
a(I1
g178
tp1057
a(I2
g178
tp1058
a(I3
g182
tp1059
a(I0
g178
tp1060
a(I1
g178
tp1061
a(I2
g130
tp1062
a(I3
g178
tp1063
a(I0
g128
tp1064
a(I1
g178
tp1065
a(I2
g130
tp1066
a(I3
g128
tp1067
a(I0
g130
tp1068
a(I1
g130
tp1069
a(I2
g130
tp1070
a(I3
g128
tp1071
a(I0
g130
tp1072
a(I1
g178
tp1073
a(I2
g130
tp1074
a(I3
g128
tp1075
a(I0
g182
tp1076
a(I1
g178
tp1077
a(I2
g130
tp1078
a(I3
g128
tp1079
a(I0
g130
tp1080
a(I1
g130
tp1081
a(I2
g178
tp1082
a(I3
g128
tp1083
a(I0
g130
tp1084
a(I1
g128
tp1085
a(I2
g178
tp1086
a(I3
g128
tp1087
a(I0
g130
tp1088
a(I1
g128
tp1089
a(I2
g182
tp1090
a(I3
g128
tp1091
a(I0
g182
tp1092
a(I1
g128
tp1093
a(I2
g182
tp1094
a(I3
g128
tp1095
a(I0
g182
tp1096
a(I1
g128
tp1097
a(I2
g128
tp1098
a(I3
g128
tp1099
a(I0
g130
tp1100
a(I1
g128
tp1101
a(I2
g128
tp1102
a(I3
g128
tp1103
a(I0
g182
tp1104
a(I1
g128
tp1105
a(I2
g128
tp1106
a(I3
g128
tp1107
a(I0
g178
tp1108
a(I1
g128
tp1109
a(I2
g128
tp1110
a(I3
g128
tp1111
a(I0
g130
tp1112
a(I1
g128
tp1113
a(I2
g128
tp1114
a(I3
g128
tp1115
a(I0
g130
tp1116
a(I1
g128
tp1117
a(I2
g128
tp1118
a(I3
g128
tp1119
a(I0
g182
tp1120
a(I1
g128
tp1121
a(I2
g182
tp1122
a(I3
g178
tp1123
a(I0
g182
tp1124
a(I1
g128
tp1125
a(I2
g128
tp1126
a(I3
g178
tp1127
a(I0
g182
tp1128
a(I1
g128
tp1129
a(I2
g128
tp1130
a(I3
g130
tp1131
a(I0
g182
tp1132
a(I1
g128
tp1133
a(I2
g128
tp1134
a(I3
g130
tp1135
a(I0
g128
tp1136
a(I1
g178
tp1137
a(I2
g178
tp1138
a(I3
g130
tp1139
a(I0
g128
tp1140
a(I1
g178
tp1141
a(I2
g178
tp1142
a(I3
g130
tp1143
a(I0
g178
tp1144
a(I1
g130
tp1145
a(I2
g128
tp1146
a(I3
g178
tp1147
a(I0
g182
tp1148
a(I1
g130
tp1149
a(I2
g128
tp1150
a(I3
g178
tp1151
a(I0
g130
tp1152
a(I1
g130
tp1153
a(I2
g182
tp1154
a(I3
g182
tp1155
a(I0
g182
tp1156
a(I1
g130
tp1157
a(I2
g182
tp1158
a(I3
g130
tp1159
a(I0
g182
tp1160
a(I1
g178
tp1161
a(I2
g128
tp1162
a(I3
g130
tp1163
a(I0
g130
tp1164
a(I1
g130
tp1165
a(I2
g182
tp1166
a(I3
g130
tp1167
a(I0
g128
tp1168
a(I1
g130
tp1169
a(I2
g178
tp1170
a(I3
g130
tp1171
a(I0
g128
tp1172
a(I1
g130
tp1173
a(I2
g130
tp1174
a(I3
g178
tp1175
a(I0
g294
tp1176
a(I1
g130
tp1177
a(I2
g178
tp1178
a(I3
g130
tp1179
a(I0
g130
tp1180
a(I1
g178
tp1181
a(I2
g178
tp1182
a(I3
g130
tp1183
a(I0
g178
tp1184
a(I1
g130
tp1185
a(I2
g130
tp1186
a(I3
g130
tp1187
a(I0
g178
tp1188
a(I1
g178
tp1189
a(I2
g130
tp1190
a(I3
g130
tp1191
a(I0
g130
tp1192
a(I1
g178
tp1193
a(I2
g182
tp1194
a(I3
g178
tp1195
a(I0
g178
tp1196
a(I1
g128
tp1197
a(I2
g182
tp1198
a(I3
g178
tp1199
a(I0
g178
tp1200
a(I1
g178
tp1201
a(I2
g130
tp1202
a(I3
g130
tp1203
a(I0
g178
tp1204
a(I1
g178
tp1205
a(I2
g130
tp1206
a(I3
g178
tp1207
a(I0
g178
tp1208
a(I1
g178
tp1209
a(I2
g130
tp1210
a(I3
g178
tp1211
a(I0
g128
tp1212
a(I1
g178
tp1213
a(I2
g182
tp1214
a(I3
g178
tp1215
a(I0
g178
tp1216
a(I1
g178
tp1217
a(I2
g182
tp1218
a(I3
g178
tp1219
a(I0
g178
tp1220
a(I1
g128
tp1221
a(I2
g130
tp1222
a(I3
g128
tp1223
a(I0
g130
tp1224
a(I1
g178
tp1225
a(I2
g294
tp1226
a(I3
g178
tp1227
a(I0
g178
tp1228
a(I1
g128
tp1229
a(I2
g128
tp1230
a(I3
g178
tp1231
a(I0
g294
tp1232
a(I1
g178
tp1233
a(I2
g294
tp1234
a(I3
g130
tp1235
a(I0
g178
tp1236
a(I1
g178
tp1237
a(I2
g294
tp1238
a(I3
g178
tp1239
a(I0
g128
tp1240
a(I1
g130
tp1241
a(I2
g130
tp1242
a(I3
g178
tp1243
a(I0
g178
tp1244
a(I1
g128
tp1245
a(I2
g128
tp1246
a(I3
g128
tp1247
a(I0
g128
tp1248
a(I1
g130
tp1249
a(I2
g130
tp1250
a(I3
g130
tp1251
a(I0
g128
tp1252
a(I1
g128
tp1253
a(I2
g128
tp1254
a(I3
g128
tp1255
a(I0
g182
tp1256
a(I1
g130
tp1257
a(I2
g130
tp1258
a(I3
g294
tp1259
a(I0
g128
tp1260
a(I1
g128
tp1261
a(I2
g128
tp1262
a(I3
g294
tp1263
a(I0
g182
tp1264
a(I1
g130
tp1265
a(I2
g130
tp1266
a(I3
g294
tp1267
a(I0
g182
tp1268
a(I1
g182
tp1269
a(I2
g178
tp1270
a(I3
g294
tp1271
a(I0
g294
tp1272
a(I1
g182
tp1273
a(I2
g178
tp1274
a(I3
g294
tp1275
a(I0
g130
tp1276
a(I1
g130
tp1277
a(I2
g178
tp1278
a(I3
g294
tp1279
a(I0
g182
tp1280
a(I1
g130
tp1281
a(I2
g130
tp1282
a(I3
g130
tp1283
a(I0
g182
tp1284
a(I1
g130
tp1285
a(I2
g130
tp1286
a(I3
g182
tp1287
a(I0
g130
tp1288
a(I1
g182
tp1289
a(I2
g130
tp1290
a(I3
g182
tp1291
a(I0
g130
tp1292
a(I1
g178
tp1293
a(I2
g130
tp1294
a(I3
g128
tp1295
a(I0
g130
tp1296
a(I1
g128
tp1297
a(I2
g182
tp1298
a(I3
g182
tp1299
a(I0
g182
tp1300
a(I1
g178
tp1301
a(I2
g182
tp1302
a(I3
g182
tp1303
a(I0
g182
tp1304
a(I1
g182
tp1305
a(I2
g182
tp1306
a(I3
g130
tp1307
a(I0
g182
tp1308
a(I1
g128
tp1309
a(I2
g178
tp1310
a(I3
g182
tp1311
a(I0
g182
tp1312
a(I1
g128
tp1313
a(I2
g178
tp1314
a(I3
g182
tp1315
a(I0
g128
tp1316
a(I1
g178
tp1317
a(I2
g178
tp1318
a(I3
g182
tp1319
a(I0
g182
tp1320
a(I1
g178
tp1321
a(I2
g182
tp1322
a(I3
g182
tp1323
a(I0
g182
tp1324
a(I1
g178
tp1325
a(I2
g178
tp1326
a(I3
g128
tp1327
a(I0
g128
tp1328
a(I1
g178
tp1329
a(I2
g128
tp1330
a(I3
g182
tp1331
a(I0
g128
tp1332
a(I1
g130
tp1333
a(I2
g128
tp1334
a(I3
g182
tp1335
a(I0
g128
tp1336
a(I1
g128
tp1337
a(I2
g128
tp1338
a(I3
g128
tp1339
a(I0
g128
tp1340
a(I1
g128
tp1341
a(I2
g128
tp1342
a(I3
g128
tp1343
a(I0
g182
tp1344
a(I1
g178
tp1345
a(I2
g128
tp1346
a(I3
g128
tp1347
a(I0
g128
tp1348
a(I1
g128
tp1349
a(I2
g182
tp1350
a(I3
g128
tp1351
a(I0
g128
tp1352
a(I1
g178
tp1353
a(I2
g128
tp1354
a(I3
g182
tp1355
a(I0
g182
tp1356
a(I1
g130
tp1357
a(I2
g178
tp1358
a(I3
g128
tp1359
a(I0
g294
tp1360
a(I1
g130
tp1361
a(I2
g130
tp1362
a(I3
g128
tp1363
a(I0
g294
tp1364
a(I1
g130
tp1365
a(I2
g130
tp1366
a(I3
g182
tp1367
a(I0
g130
tp1368
a(I1
g130
tp1369
a(I2
g130
tp1370
a(I3
g178
tp1371
a(I0
g130
tp1372
a(I1
g130
tp1373
a(I2
g130
tp1374
a(I3
g130
tp1375
a(I0
g130
tp1376
a(I1
g130
tp1377
a(I2
g130
tp1378
a(I3
g130
tp1379
a(I0
g130
tp1380
a(I1
g130
tp1381
a(I2
g130
tp1382
a(I3
g178
tp1383
a(I0
g130
tp1384
a(I1
g178
tp1385
a(I2
g130
tp1386
a(I3
g130
tp1387
a(I0
g130
tp1388
a(I1
g178
tp1389
a(I2
g178
tp1390
a(I3
g178
tp1391
a(I0
g130
tp1392
a(I1
g178
tp1393
a(I2
g178
tp1394
a(I3
g178
tp1395
a(I0
g130
tp1396
a(I1
g178
tp1397
a(I2
g178
tp1398
a(I3
g128
tp1399
a(I0
g130
tp1400
a(I1
g130
tp1401
a(I2
g178
tp1402
a(I3
g178
tp1403
a(I0
g130
tp1404
a(I1
g294
tp1405
a(I2
g130
tp1406
a(I3
g178
tp1407
a(I0
g294
tp1408
a(I1
g128
tp1409
a(I2
g128
tp1410
a(I3
g178
tp1411
a(I0
g130
tp1412
a(I1
g128
tp1413
a(I2
g182
tp1414
a(I3
g178
tp1415
a(I0
g130
tp1416
a(I1
g128
tp1417
a(I2
g182
tp1418
a(I3
g178
tp1419
a(I0
g182
tp1420
a(I1
g128
tp1421
a(I2
g182
tp1422
a(I3
g178
tp1423
a(I0
g182
tp1424
a(I1
g128
tp1425
a(I2
g182
tp1426
a(I3
g130
tp1427
a(I0
g128
tp1428
a(I1
g128
tp1429
a(I2
g128
tp1430
a(I3
g178
tp1431
a(I0
g128
tp1432
a(I1
g128
tp1433
a(I2
g182
tp1434
a(I3
g178
tp1435
a(I0
g128
tp1436
a(I1
g128
tp1437
a(I2
g182
tp1438
a(I3
g130
tp1439
a(I0
g128
tp1440
a(I1
g128
tp1441
a(I2
g182
tp1442
a(I3
g128
tp1443
a(I0
g182
tp1444
a(I1
g128
tp1445
a(I2
g128
tp1446
a(I3
g130
tp1447
a(I0
g128
tp1448
a(I1
g128
tp1449
a(I2
g294
tp1450
a(I3
g294
tp1451
a(I0
g128
tp1452
a(I1
g128
tp1453
a(I2
g294
tp1454
a(I3
g294
tp1455
a(I0
g128
tp1456
a(I1
g178
tp1457
a(I2
g294
tp1458
a(I3
g294
tp1459
a(I0
g128
tp1460
a(I1
g178
tp1461
a(I2
g294
tp1462
a(I3
g294
tp1463
a(I0
g182
tp1464
a(I1
g130
tp1465
a(I2
g294
tp1466
a(I3
g294
tp1467
a(I0
g128
tp1468
a(I1
g130
tp1469
a(I2
g294
tp1470
a(I3
g294
tp1471
a(I0
g128
tp1472
a(I1
g130
tp1473
a(I2
g294
tp1474
a(I3
g294
tp1475
a(I0
g128
tp1476
a(I1
g130
tp1477
a(I2
g294
tp1478
a(I3
g294
tp1479
a(I0
g128
tp1480
a(I1
g178
tp1481
a(I2
g294
tp1482
a(I3
g294
tp1483
a(I0
g182
tp1484
a(I1
g178
tp1485
a(I2
g294
tp1486
a(I3
g294
tp1487
a(I0
g182
tp1488
a(I1
g178
tp1489
a(I2
g294
tp1490
a(I3
g294
tp1491
a(I0
g128
tp1492
a(I1
g128
tp1493
a(I2
g294
tp1494
a(I3
g294
tp1495
a(I0
g182
tp1496
a(I1
g128
tp1497
a(I2
g294
tp1498
a(I3
g294
tp1499
a(I0
g182
tp1500
a(I1
g128
tp1501
a(I2
g294
tp1502
a(I3
g294
tp1503
a(I0
g182
tp1504
a(I1
g178
tp1505
a(I2
g294
tp1506
a(I3
g294
tp1507
a(I0
g182
tp1508
a(I1
g178
tp1509
a(I2
g294
tp1510
a(I3
g294
tp1511
a(I0
g130
tp1512
a(I1
g178
tp1513
a(I2
g294
tp1514
a(I3
g294
tp1515
a(I0
g182
tp1516
a(I1
g178
tp1517
a(I2
g294
tp1518
a(I3
g294
tp1519
a(I0
g182
tp1520
a(I1
g178
tp1521
a(I2
g294
tp1522
a(I3
g294
tp1523
a(I0
g178
tp1524
a(I1
g178
tp1525
a(I2
g294
tp1526
a(I3
g294
tp1527
a(I0
g178
tp1528
a(I1
g130
tp1529
a(I2
g294
tp1530
a(I3
g294
tp1531
a(I0
g130
tp1532
a(I1
g178
tp1533
a(I2
g294
tp1534
a(I3
g294
tp1535
a(I0
g130
tp1536
a(I1
g178
tp1537
a(I2
g294
tp1538
a(I3
g294
tp1539
a(I0
g182
tp1540
a(I1
g130
tp1541
a(I2
g294
tp1542
a(I3
g294
tp1543
a(I0
g182
tp1544
a(I1
g178
tp1545
a(I2
g130
tp1546
a(I3
g128
tp1547
a(I0
g130
tp1548
a(I1
g128
tp1549
a(I2
g178
tp1550
a(I3
g130
tp1551
a(I0
g130
tp1552
a(I1
g128
tp1553
a(I2
g178
tp1554
a(I3
g128
tp1555
a(I0
g130
tp1556
a(I1
g128
tp1557
a(I2
g178
tp1558
a(I3
g130
tp1559
a(I0
g182
tp1560
a(I1
g178
tp1561
a(I2
g128
tp1562
a(I3
g128
tp1563
a(I0
g178
tp1564
a(I1
g178
tp1565
a(I2
g128
tp1566
a(I3
g130
tp1567
a(I0
g128
tp1568
a(I1
g178
tp1569
a(I2
g128
tp1570
a(I3
g128
tp1571
a(I0
g128
tp1572
a(I1
g130
tp1573
a(I2
g128
tp1574
a(I3
g130
tp1575
a(I0
g128
tp1576
a(I1
g178
tp1577
a(I2
g128
tp1578
a(I3
g294
tp1579
a(I0
g178
tp1580
a(I1
g178
tp1581
a(I2
g182
tp1582
a(I3
g128
tp1583
a(I0
g178
tp1584
a(I1
g128
tp1585
a(I2
g128
tp1586
a(I3
g182
tp1587
a(I0
g128
tp1588
a(I1
g178
tp1589
a(I2
g128
tp1590
a(I3
g182
tp1591
a(I0
g128
tp1592
a(I1
g178
tp1593
a(I2
g128
tp1594
a(I3
g128
tp1595
a(I0
g128
tp1596
a(I1
g178
tp1597
a(I2
g178
tp1598
a(I3
g128
tp1599
a(I0
g178
tp1600
a(I1
g178
tp1601
a(I2
g178
tp1602
a(I3
g128
tp1603
a(I0
g178
tp1604
a(I1
g130
tp1605
a(I2
g128
tp1606
a(I3
g178
tp1607
a(I0
g178
tp1608
a(I1
g178
tp1609
a(I2
g128
tp1610
a(I3
g178
tp1611
a(I0
g178
tp1612
a(I1
g178
tp1613
a(I2
g128
tp1614
a(I3
g130
tp1615
a(I0
g130
tp1616
a(I1
g128
tp1617
a(I2
g178
tp1618
a(I3
g128
tp1619
a(I0
g178
tp1620
a(I1
g130
tp1621
a(I2
g178
tp1622
a(I3
g294
tp1623
a(I0
g178
tp1624
a(I1
g128
tp1625
a(I2
g182
tp1626
a(I3
g182
tp1627
a(I0
g182
tp1628
a(I1
g128
tp1629
a(I2
g182
tp1630
a(I3
g178
tp1631
a(I0
g182
tp1632
a(I1
g128
tp1633
a(I2
g130
tp1634
a(I3
g294
tp1635
a(I0
g128
tp1636
a(I1
g128
tp1637
a(I2
g130
tp1638
a(I3
g182
tp1639
a(I0
g182
tp1640
a(I1
g128
tp1641
a(I2
g130
tp1642
a(I3
g178
tp1643
a(I0
g182
tp1644
a(I1
g128
tp1645
a(I2
g182
tp1646
a(I3
g182
tp1647
a(I0
g182
tp1648
a(I1
g128
tp1649
a(I2
g182
tp1650
a(I3
g178
tp1651
a(I0
g182
tp1652
a(I1
g128
tp1653
a(I2
g130
tp1654
a(I3
g130
tp1655
a(I0
g130
tp1656
a(I1
g128
tp1657
a(I2
g130
tp1658
a(I3
g128
tp1659
a(I0
g182
tp1660
a(I1
g128
tp1661
a(I2
g130
tp1662
a(I3
g130
tp1663
a(I0
g182
tp1664
a(I1
g128
tp1665
a(I2
g182
tp1666
a(I3
g128
tp1667
a(I0
g128
tp1668
a(I1
g128
tp1669
a(I2
g182
tp1670
a(I3
g294
tp1671
a(I0
g182
tp1672
a(I1
g178
tp1673
a(I2
g294
tp1674
a(I3
g294
tp1675
a(I0
g182
tp1676
a(I1
g178
tp1677
a(I2
g294
tp1678
a(I3
g294
tp1679
a(I0
g182
tp1680
a(I1
g130
tp1681
a(I2
g294
tp1682
a(I3
g294
tp1683
a(I0
g182
tp1684
a(I1
g130
tp1685
a(I2
g294
tp1686
a(I3
g294
tp1687
a(I0
g182
tp1688
a(I1
g130
tp1689
a(I2
g294
tp1690
a(I3
g294
tp1691
a(I0
g182
tp1692
a(I1
g130
tp1693
a(I2
g294
tp1694
a(I3
g294
tp1695
a(I0
g130
tp1696
a(I1
g178
tp1697
a(I2
g294
tp1698
a(I3
g294
tp1699
a(I0
g182
tp1700
a(I1
g178
tp1701
a(I2
g294
tp1702
a(I3
g294
tp1703
a(I0
g182
tp1704
a(I1
g178
tp1705
a(I2
g294
tp1706
a(I3
g294
tp1707
a(I0
g182
tp1708
a(I1
g128
tp1709
a(I2
g294
tp1710
a(I3
g294
tp1711
a(I0
g182
tp1712
a(I1
g128
tp1713
a(I2
g294
tp1714
a(I3
g294
tp1715
a(I0
g294
tp1716
a(I1
g128
tp1717
a(I2
g294
tp1718
a(I3
g294
tp1719
a(I0
g130
tp1720
a(I1
g178
tp1721
a(I2
g294
tp1722
a(I3
g294
tp1723
a(I0
g294
tp1724
a(I1
g178
tp1725
a(I2
g294
tp1726
a(I3
g294
tp1727
a(I0
g130
tp1728
a(I1
g130
tp1729
a(I2
g294
tp1730
a(I3
g294
tp1731
a(I0
g128
tp1732
a(I1
g128
tp1733
a(I2
g294
tp1734
a(I3
g294
tp1735
a(I0
g130
tp1736
a(I1
g178
tp1737
a(I2
g294
tp1738
a(I3
g294
tp1739
a(I0
g130
tp1740
a(I1
g178
tp1741
a(I2
g294
tp1742
a(I3
g294
tp1743
a(I0
g130
tp1744
a(I1
g178
tp1745
a(I2
g294
tp1746
a(I3
g294
tp1747
a(I0
g130
tp1748
a(I1
g178
tp1749
a(I2
g294
tp1750
a(I3
g294
tp1751
a(I0
g130
tp1752
a(I1
g128
tp1753
a(I2
g294
tp1754
a(I3
g294
tp1755
a(I0
g130
tp1756
a(I1
g178
tp1757
a(I2
g294
tp1758
a(I3
g294
tp1759
a(I0
g130
tp1760
a(I1
g178
tp1761
a(I2
g294
tp1762
a(I3
g294
tp1763
a(I0
g130
tp1764
a(I1
g178
tp1765
a(I2
g294
tp1766
a(I3
g294
tp1767
a(I0
g130
tp1768
a(I1
g178
tp1769
a(I2
g178
tp1770
a(I3
g130
tp1771
a(I0
g130
tp1772
a(I1
g178
tp1773
a(I2
g178
tp1774
a(I3
g128
tp1775
a(I0
g130
tp1776
a(I1
g178
tp1777
a(I2
g128
tp1778
a(I3
g130
tp1779
a(I0
g130
tp1780
a(I1
g130
tp1781
a(I2
g128
tp1782
a(I3
g128
tp1783
a(I0
g182
tp1784
a(I1
g178
tp1785
a(I2
g128
tp1786
a(I3
g182
tp1787
a(I0
g182
tp1788
a(I1
g178
tp1789
a(I2
g178
tp1790
a(I3
g178
tp1791
a(I0
g128
tp1792
a(I1
g130
tp1793
a(I2
g178
tp1794
a(I3
g182
tp1795
a(I0
g128
tp1796
a(I1
g178
tp1797
a(I2
g128
tp1798
a(I3
g178
tp1799
a(I0
g128
tp1800
a(I1
g294
tp1801
a(I2
g178
tp1802
a(I3
g294
tp1803
a(I0
g294
tp1804
a(I1
g128
tp1805
a(I2
g182
tp1806
a(I3
g130
tp1807
a(I0
g128
tp1808
a(I1
g128
tp1809
a(I2
g130
tp1810
a(I3
g128
tp1811
a(I0
g182
tp1812
a(I1
g128
tp1813
a(I2
g182
tp1814
a(I3
g182
tp1815
a(I0
g128
tp1816
a(I1
g128
tp1817
a(I2
g182
tp1818
a(I3
g178
tp1819
a(I0
g128
tp1820
a(I1
g128
tp1821
a(I2
g130
tp1822
a(I3
g130
tp1823
a(I0
g128
tp1824
a(I1
g128
tp1825
a(I2
g130
tp1826
a(I3
g128
tp1827
a(I0
g128
tp1828
a(I1
g128
tp1829
a(I2
g130
tp1830
a(I3
g130
tp1831
a(I0
g182
tp1832
a(I1
g128
tp1833
a(I2
g130
tp1834
a(I3
g128
tp1835
a(I0
g128
tp1836
a(I1
g128
tp1837
a(I2
g182
tp1838
a(I3
g130
tp1839
a(I0
g128
tp1840
a(I1
g128
tp1841
a(I2
g182
tp1842
a(I3
g294
tp1843
a(I0
g128
tp1844
a(I1
g128
tp1845
a(I2
g294
tp1846
a(I3
g294
tp1847
a(I0
g128
tp1848
a(I1
g128
tp1849
a(I2
g294
tp1850
a(I3
g294
tp1851
a(I0
g182
tp1852
a(I1
g178
tp1853
a(I2
g294
tp1854
a(I3
g294
tp1855
a(I0
g182
tp1856
a(I1
g178
tp1857
a(I2
g294
tp1858
a(I3
g294
tp1859
a(I0
g128
tp1860
a(I1
g130
tp1861
a(I2
g294
tp1862
a(I3
g294
tp1863
a(I0
g182
tp1864
a(I1
g130
tp1865
a(I2
g294
tp1866
a(I3
g294
tp1867
a(I0
g182
tp1868
a(I1
g130
tp1869
a(I2
g294
tp1870
a(I3
g294
tp1871
a(I0
g182
tp1872
a(I1
g130
tp1873
a(I2
g294
tp1874
a(I3
g294
tp1875
a(I0
g182
tp1876
a(I1
g178
tp1877
a(I2
g294
tp1878
a(I3
g294
tp1879
a(I0
g130
tp1880
a(I1
g178
tp1881
a(I2
g294
tp1882
a(I3
g294
tp1883
a(I0
g182
tp1884
a(I1
g178
tp1885
a(I2
g294
tp1886
a(I3
g294
tp1887
a(I0
g182
tp1888
a(I1
g128
tp1889
a(I2
g294
tp1890
a(I3
g294
tp1891
a(I0
g128
tp1892
a(I1
g128
tp1893
a(I2
g294
tp1894
a(I3
g294
tp1895
a(I0
g182
tp1896
a(I1
g128
tp1897
a(I2
g294
tp1898
a(I3
g294
tp1899
a(I0
g182
tp1900
a(I1
g178
tp1901
a(I2
g294
tp1902
a(I3
g294
tp1903
a(I0
g182
tp1904
a(I1
g178
tp1905
a(I2
g294
tp1906
a(I3
g294
tp1907
a(I0
g182
tp1908
a(I1
g178
tp1909
a(I2
g294
tp1910
a(I3
g294
tp1911
a(I0
g182
tp1912
a(I1
g178
tp1913
a(I2
g294
tp1914
a(I3
g294
tp1915
a(I0
g182
tp1916
a(I1
g178
tp1917
a(I2
g294
tp1918
a(I3
g294
tp1919
a(I0
g178
tp1920
a(I1
g178
tp1921
a(I2
g294
tp1922
a(I3
g294
tp1923
a(I0
g178
tp1924
a(I1
g128
tp1925
a(I2
g294
tp1926
a(I3
g294
tp1927
a(I0
g178
tp1928
a(I1
g178
tp1929
a(I2
g294
tp1930
a(I3
g294
tp1931
a(I0
g294
tp1932
a(I1
g178
tp1933
a(I2
g294
tp1934
a(I3
g294
tp1935
a(I0
g130
tp1936
a(I1
g178
tp1937
a(I2
g128
tp1938
a(I3
g128
tp1939
a(I0
g130
tp1940
a(I1
g130
tp1941
a(I2
g178
tp1942
a(I3
g182
tp1943
a(I0
g182
tp1944
a(I1
g130
tp1945
a(I2
g178
tp1946
a(I3
g178
tp1947
a(I0
g182
tp1948
a(I1
g182
tp1949
a(I2
g182
tp1950
a(I3
g294
tp1951
a(I0
g182
tp1952
a(I1
g182
tp1953
a(I2
g182
tp1954
a(I3
g294
tp1955
a(I0
g128
tp1956
a(I1
g182
tp1957
a(I2
g294
tp1958
a(I3
g294
tp1959
a(I0
g182
tp1960
a(I1
g128
tp1961
a(I2
g294
tp1962
a(I3
g294
tp1963
a(I0
g182
tp1964
a(I1
g182
tp1965
a(I2
g294
tp1966
a(I3
g294
tp1967
a(I0
g182
tp1968
a(I1
g182
tp1969
a(I2
g294
tp1970
a(I3
g294
tp1971
a(I0
g182
tp1972
a(I1
g182
tp1973
a(I2
g294
tp1974
a(I3
g294
tp1975
a(I0
g182
tp1976
a(I1
g182
tp1977
a(I2
g294
tp1978
a(I3
g294
tp1979
a(I0
g182
tp1980
a(I1
g182
tp1981
a(I2
g294
tp1982
a(I3
g294
tp1983
a(I0
g130
tp1984
a(I1
g182
tp1985
a(I2
g294
tp1986
a(I3
g294
tp1987
a(I0
g130
tp1988
a(I1
g130
tp1989
a(I2
g294
tp1990
a(I3
g294
tp1991
a(I0
g130
tp1992
a(I1
g130
tp1993
a(I2
g294
tp1994
a(I3
g294
tp1995
a(I0
g182
tp1996
a(I1
g130
tp1997
a(I2
g294
tp1998
a(I3
g294
tp1999
a(I0
g182
tp2000
a(I1
g182
tp2001
a(I2
g294
tp2002
a(I3
g294
tp2003
a(I0
g130
tp2004
a(I1
g182
tp2005
a(I2
g294
tp2006
a(I3
g294
tp2007
a(I0
g130
tp2008
a(I1
g130
tp2009
a(I2
g294
tp2010
a(I3
g294
tp2011
a(I0
g130
tp2012
a(I1
g130
tp2013
a(I2
g294
tp2014
a(I3
g294
tp2015
a(I0
g130
tp2016
a(I1
g130
tp2017
a(I2
g294
tp2018
a(I3
g294
tp2019
a(I0
g182
tp2020
a(I1
g130
tp2021
a(I2
g294
tp2022
a(I3
g294
tp2023
a(I0
g130
tp2024
a(I1
g182
tp2025
a(I2
g294
tp2026
a(I3
g294
tp2027
a(I0
g130
tp2028
a(I1
g130
tp2029
a(I2
g294
tp2030
a(I3
g294
tp2031
a(I0
g130
tp2032
a(I1
g130
tp2033
a(I2
g294
tp2034
a(I3
g294
tp2035
a(I0
g130
tp2036
a(I1
g130
tp2037
a(I2
g294
tp2038
a(I3
g294
tp2039
a(I0
g130
tp2040
a(I1
g130
tp2041
a(I2
g294
tp2042
a(I3
g294
tp2043
a(I0
g128
tp2044
a(I1
g128
tp2045
a(I2
g294
tp2046
a(I3
g294
tp2047
a(I0
g130
tp2048
a(I1
g128
tp2049
a(I2
g294
tp2050
a(I3
g294
tp2051
a(I0
g130
tp2052
a(I1
g128
tp2053
a(I2
g294
tp2054
a(I3
g294
tp2055
a(I0
g130
tp2056
a(I1
g128
tp2057
a(I2
g294
tp2058
a(I3
g294
tp2059
a(I0
g130
tp2060
a(I1
g178
tp2061
a(I2
g294
tp2062
a(I3
g294
tp2063
a(I0
g130
tp2064
a(I1
g178
tp2065
a(I2
g294
tp2066
a(I3
g294
tp2067
a(I0
g130
tp2068
a(I1
g130
tp2069
a(I2
g294
tp2070
a(I3
g294
tp2071
a(I0
g130
tp2072
a(I1
g178
tp2073
a(I2
g294
tp2074
a(I3
g294
tp2075
a(I0
g130
tp2076
a(I1
g178
tp2077
a(I2
g294
tp2078
a(I3
g294
tp2079
a(I0
g130
tp2080
a(I1
g128
tp2081
a(I2
g294
tp2082
a(I3
g294
tp2083
a(I0
g130
tp2084
a(I1
g178
tp2085
a(I2
g294
tp2086
a(I3
g294
tp2087
a(I0
g130
tp2088
a(I1
g178
tp2089
a(I2
g294
tp2090
a(I3
g294
tp2091
a(I0
g130
tp2092
a(I1
g178
tp2093
a(I2
g294
tp2094
a(I3
g294
tp2095
a(I0
g182
tp2096
a(I1
g178
tp2097
a(I2
g294
tp2098
a(I3
g294
tp2099
a(I0
g182
tp2100
a(I1
g178
tp2101
a(I2
g294
tp2102
a(I3
g294
tp2103
a(I0
g128
tp2104
a(I1
g178
tp2105
a(I2
g294
tp2106
a(I3
g294
tp2107
a(I0
g128
tp2108
a(I1
g130
tp2109
a(I2
g294
tp2110
a(I3
g294
tp2111
a(I0
g128
tp2112
a(I1
g178
tp2113
a(I2
g294
tp2114
a(I3
g294
tp2115
a(I0
g128
tp2116
a(I1
g178
tp2117
a(I2
g294
tp2118
a(I3
g294
tp2119
a(I0
g182
tp2120
a(I1
g130
tp2121
a(I2
g294
tp2122
a(I3
g294
tp2123
a(I0
g128
tp2124
a(I1
g178
tp2125
a(I2
g130
tp2126
a(I3
g130
tp2127
a(I0
g130
tp2128
a(I1
g130
tp2129
a(I2
g178
tp2130
a(I3
g182
tp2131
a(I0
g182
tp2132
a(I1
g178
tp2133
a(I2
g178
tp2134
a(I3
g178
tp2135
a(I0
g182
tp2136
a(I1
g178
tp2137
a(I2
g178
tp2138
a(I3
g294
tp2139
a(I0
g130
tp2140
a(I1
g178
tp2141
a(I2
g130
tp2142
a(I3
g182
tp2143
a(I0
g130
tp2144
a(I1
g130
tp2145
a(I2
g130
tp2146
a(I3
g178
tp2147
a(I0
g130
tp2148
a(I1
g178
tp2149
a(I2
g130
tp2150
a(I3
g294
tp2151
a(I0
g182
tp2152
a(I1
g178
tp2153
a(I2
g130
tp2154
a(I3
g128
tp2155
a(I0
g182
tp2156
a(I1
g178
tp2157
a(I2
g130
tp2158
a(I3
g130
tp2159
a(I0
g182
tp2160
a(I1
g128
tp2161
a(I2
g128
tp2162
a(I3
g294
tp2163
a(I0
g182
tp2164
a(I1
g128
tp2165
a(I2
g128
tp2166
a(I3
g182
tp2167
a(I0
g182
tp2168
a(I1
g128
tp2169
a(I2
g128
tp2170
a(I3
g178
tp2171
a(I0
g182
tp2172
a(I1
g128
tp2173
a(I2
g128
tp2174
a(I3
g182
tp2175
a(I0
g128
tp2176
a(I1
g128
tp2177
a(I2
g128
tp2178
a(I3
g178
tp2179
a(I0
g128
tp2180
a(I1
g128
tp2181
a(I2
g182
tp2182
a(I3
g294
tp2183
a(I0
g128
tp2184
a(I1
g128
tp2185
a(I2
g182
tp2186
a(I3
g128
tp2187
a(I0
g128
tp2188
a(I1
g128
tp2189
a(I2
g128
tp2190
a(I3
g294
tp2191
a(I0
g128
tp2192
a(I1
g128
tp2193
a(I2
g182
tp2194
a(I3
g294
tp2195
a(I0
g182
tp2196
a(I1
g128
tp2197
a(I2
g294
tp2198
a(I3
g294
tp2199
a(I0
g128
tp2200
a(I1
g128
tp2201
a(I2
g294
tp2202
a(I3
g294
tp2203
a(I0
g128
tp2204
a(I1
g128
tp2205
a(I2
g294
tp2206
a(I3
g294
tp2207
a(I0
g128
tp2208
a(I1
g178
tp2209
a(I2
g294
tp2210
a(I3
g294
tp2211
a(I0
g182
tp2212
a(I1
g178
tp2213
a(I2
g294
tp2214
a(I3
g294
tp2215
a(I0
g182
tp2216
a(I1
g130
tp2217
a(I2
g294
tp2218
a(I3
g294
tp2219
a(I0
g128
tp2220
a(I1
g130
tp2221
a(I2
g294
tp2222
a(I3
g294
tp2223
a(I0
g182
tp2224
a(I1
g130
tp2225
a(I2
g294
tp2226
a(I3
g294
tp2227
a(I0
g182
tp2228
a(I1
g130
tp2229
a(I2
g294
tp2230
a(I3
g294
tp2231
a(I0
g128
tp2232
a(I1
g178
tp2233
a(I2
g294
tp2234
a(I3
g294
tp2235
a(I0
g182
tp2236
a(I1
g130
tp2237
a(I2
g294
tp2238
a(I3
g294
tp2239
a(I0
g182
tp2240
a(I1
g130
tp2241
a(I2
g294
tp2242
a(I3
g294
tp2243
a(I0
g128
tp2244
a(I1
g130
tp2245
a(I2
g294
tp2246
a(I3
g294
tp2247
a(I0
g182
tp2248
a(I1
g130
tp2249
a(I2
g294
tp2250
a(I3
g294
tp2251
a(I0
g182
tp2252
a(I1
g178
tp2253
a(I2
g294
tp2254
a(I3
g294
tp2255
a(I0
g182
tp2256
a(I1
g130
tp2257
a(I2
g294
tp2258
a(I3
g294
tp2259
a(I0
g182
tp2260
a(I1
g178
tp2261
a(I2
g294
tp2262
a(I3
g294
tp2263
a(I0
g182
tp2264
a(I1
g178
tp2265
a(I2
g294
tp2266
a(I3
g294
tp2267
a(I0
g182
tp2268
a(I1
g128
tp2269
a(I2
g294
tp2270
a(I3
g294
tp2271
a(I0
g130
tp2272
a(I1
g178
tp2273
a(I2
g294
tp2274
a(I3
g294
tp2275
a(I0
g130
tp2276
a(I1
g178
tp2277
a(I2
g294
tp2278
a(I3
g294
tp2279
a(I0
g130
tp2280
a(I1
g178
tp2281
a(I2
g294
tp2282
a(I3
g294
tp2283
a(I0
g130
tp2284
a(I1
g178
tp2285
a(I2
g294
tp2286
a(I3
g294
tp2287
a(I0
g178
tp2288
as.