(dp1
S'agents'
p2
(lp3
(igame
Agent
p4
(dp5
S'index'
p6
I0
sba(igame
Agent
p7
(dp8
g6
I0
sba(igame
Agent
p9
(dp10
g6
I0
sba(igame
Agent
p11
(dp12
g6
I0
sbasS'length'
p13
I3000
sS'layout'
p14
(ilayout
Layout
p15
(dp16
S'capsules'
p17
(lp18
(I6
I5
tp19
a(I25
I10
tp20
asS'numGhosts'
p21
I4
sS'food'
p22
(igame
Grid
p23
(dp24
S'CELLS_PER_INT'
p25
I30
sS'width'
p26
I32
sS'data'
p27
(lp28
(lp29
I00
aI00
aI00
aI00
aI00
aI00
aI00
aI00
aI00
aI00
aI00
aI00
aI00
aI00
aI00
aI00
aa(lp30
I00
aI00
aI00
aI00
aI00
aI00
aI00
aI00
aI00
aI00
aI00
aI00
aI00
aI00
aI00
aI00
aa(lp31
I00
aI00
aI00
aI00
aI00
aI00
aI00
aI00
aI00
aI00
aI00
aI00
aI00
aI00
aI00
aI00
aa(lp32
I00
aI01
aI01
aI00
aI00
aI00
aI00
aI00
aI01
aI00
aI00
aI00
aI00
aI00
aI00
aI00
aa(lp33
I00
aI00
aI00
aI00
aI00
aI00
aI00
aI00
aI00
aI00
aI00
aI00
aI00
aI00
aI00
aI00
aa(lp34
I00
aI01
aI00
aI00
aI00
aI00
aI00
aI00
aI00
aI00
aI00
aI00
aI01
aI00
aI01
aI00
aa(lp35
I00
aI00
aI00
aI00
aI00
aI00
aI00
aI00
aI00
aI00
aI00
aI00
aI00
aI00
aI00
aI00
aa(lp36
I00
aI00
aI00
aI01
aI00
aI00
aI00
aI00
aI01
aI01
aI00
aI00
aI00
aI00
aI00
aI00
aa(lp37
I00
aI00
aI00
aI01
aI00
aI00
aI00
aI00
aI00
aI01
aI00
aI00
aI00
aI00
aI01
aI00
aa(lp38
I00
aI00
aI00
aI00
aI00
aI01
aI00
aI00
aI00
aI00
aI00
aI01
aI00
aI00
aI00
aI00
aa(lp39
I00
aI00
aI00
aI01
aI00
aI00
aI00
aI01
aI00
aI01
aI00
aI01
aI00
aI00
aI01
aI00
aa(lp40
I00
aI00
aI00
aI00
aI00
aI00
aI00
aI00
aI00
aI00
aI00
aI00
aI00
aI00
aI00
aI00
aa(lp41
I00
aI00
aI00
aI00
aI00
aI00
aI00
aI00
aI00
aI00
aI00
aI00
aI00
aI00
aI00
aI00
aa(lp42
I00
aI00
aI00
aI00
aI00
aI00
aI00
aI00
aI00
aI00
aI00
aI00
aI00
aI00
aI00
aI00
aa(lp43
I00
aI00
aI00
aI00
aI00
aI00
aI00
aI00
aI00
aI01
aI00
aI00
aI00
aI00
aI00
aI00
aa(lp44
I00
aI00
aI00
aI00
aI00
aI00
aI00
aI00
aI00
aI00
aI00
aI00
aI00
aI00
aI00
aI00
aa(lp45
I00
aI00
aI00
aI00
aI00
aI00
aI00
aI00
aI00
aI00
aI00
aI00
aI00
aI00
aI00
aI00
aa(lp46
I00
aI00
aI00
aI00
aI00
aI00
aI01
aI00
aI00
aI00
aI00
aI00
aI00
aI00
aI00
aI00
aa(lp47
I00
aI00
aI00
aI00
aI00
aI00
aI00
aI00
aI00
aI00
aI00
aI00
aI00
aI00
aI00
aI00
aa(lp48
I00
aI00
aI00
aI00
aI00
aI00
aI00
aI00
aI00
aI00
aI00
aI00
aI00
aI00
aI00
aI00
aa(lp49
I00
aI00
aI00
aI00
aI00
aI00
aI00
aI00
aI00
aI00
aI00
aI00
aI00
aI00
aI00
aI00
aa(lp50
I00
aI01
aI00
aI00
aI01
aI00
aI01
aI00
aI01
aI00
aI00
aI00
aI01
aI00
aI00
aI00
aa(lp51
I00
aI00
aI00
aI00
aI01
aI00
aI00
aI00
aI00
aI00
aI01
aI00
aI00
aI00
aI00
aI00
aa(lp52
I00
aI01
aI00
aI00
aI00
aI00
aI01
aI00
aI00
aI00
aI00
aI00
aI01
aI00
aI00
aI00
aa(lp53
I00
aI00
aI00
aI00
aI00
aI00
aI01
aI01
aI00
aI00
aI00
aI00
aI01
aI00
aI00
aI00
aa(lp54
I00
aI00
aI00
aI00
aI00
aI00
aI00
aI00
aI00
aI00
aI00
aI00
aI00
aI00
aI00
aI00
aa(lp55
I00
aI01
aI00
aI01
aI00
aI00
aI00
aI00
aI00
aI00
aI00
aI00
aI00
aI00
aI01
aI00
aa(lp56
I00
aI00
aI00
aI00
aI00
aI00
aI00
aI00
aI00
aI00
aI00
aI00
aI00
aI00
aI00
aI00
aa(lp57
I00
aI00
aI00
aI00
aI00
aI00
aI00
aI01
aI00
aI00
aI00
aI00
aI00
aI01
aI01
aI00
aa(lp58
I00
aI00
aI00
aI00
aI00
aI00
aI00
aI00
aI00
aI00
aI00
aI00
aI00
aI00
aI00
aI00
aa(lp59
I00
aI00
aI00
aI00
aI00
aI00
aI00
aI00
aI00
aI00
aI00
aI00
aI00
aI00
aI00
aI00
aa(lp60
I00
aI00
aI00
aI00
aI00
aI00
aI00
aI00
aI00
aI00
aI00
aI00
aI00
aI00
aI00
aI00
aasS'height'
p61
I16
sbsS'agentPositions'
p62
(lp63
(I00
(I1
I2
tp64
tp65
a(I00
(I30
I13
tp66
tp67
a(I00
(I1
I1
tp68
tp69
a(I00
(I30
I14
tp70
tp71
asg61
I16
sg26
I32
sS'walls'
p72
(igame
Grid
p73
(dp74
g25
I30
sg26
I32
sg27
(lp75
(lp76
I01
aI01
aI01
aI01
aI01
aI01
aI01
aI01
aI01
aI01
aI01
aI01
aI01
aI01
aI01
aI01
aa(lp77
I01
aI00
aI00
aI00
aI00
aI00
aI00
aI00
aI00
aI00
aI00
aI00
aI00
aI00
aI00
aI01
aa(lp78
I01
aI01
aI01
aI01
aI01
aI01
aI01
aI01
aI01
aI01
aI01
aI01
aI01
aI01
aI00
aI01
aa(lp79
I01
aI00
aI00
aI00
aI00
aI00
aI00
aI01
aI00
aI01
aI00
aI00
aI00
aI00
aI00
aI01
aa(lp80
I01
aI01
aI01
aI01
aI01
aI01
aI00
aI00
aI00
aI00
aI00
aI01
aI01
aI01
aI01
aI01
aa(lp81
I01
aI00
aI00
aI00
aI00
aI00
aI00
aI00
aI01
aI01
aI00
aI01
aI00
aI01
aI00
aI01
aa(lp82
I01
aI01
aI00
aI01
aI01
aI00
aI01
aI01
aI01
aI00
aI00
aI00
aI00
aI00
aI00
aI01
aa(lp83
I01
aI00
aI00
aI00
aI01
aI00
aI00
aI01
aI00
aI00
aI01
aI01
aI01
aI00
aI01
aI01
aa(lp84
I01
aI00
aI01
aI00
aI01
aI01
aI00
aI01
aI01
aI00
aI01
aI00
aI00
aI00
aI00
aI01
aa(lp85
I01
aI00
aI01
aI01
aI01
aI00
aI00
aI01
aI01
aI01
aI01
aI00
aI01
aI00
aI01
aI01
aa(lp86
I01
aI00
aI01
aI00
aI01
aI01
aI00
aI00
aI01
aI00
aI01
aI00
aI01
aI00
aI00
aI01
aa(lp87
I01
aI00
aI00
aI00
aI00
aI01
aI00
aI01
aI01
aI00
aI01
aI01
aI01
aI00
aI01
aI01
aa(lp88
I01
aI01
aI00
aI01
aI00
aI01
aI00
aI00
aI00
aI00
aI00
aI00
aI00
aI00
aI00
aI01
aa(lp89
I01
aI00
aI00
aI01
aI00
aI00
aI00
aI00
aI00
aI01
aI01
aI01
aI00
aI01
aI00
aI01
aa(lp90
I01
aI00
aI01
aI01
aI01
aI00
aI01
aI00
aI00
aI00
aI01
aI00
aI00
aI01
aI00
aI01
aa(lp91
I01
aI00
aI00
aI01
aI00
aI00
aI01
aI00
aI00
aI01
aI01
aI00
aI00
aI00
aI00
aI01
aa(lp92
I01
aI00
aI00
aI00
aI00
aI01
aI01
aI00
aI00
aI01
aI00
aI00
aI01
aI00
aI00
aI01
aa(lp93
I01
aI00
aI01
aI00
aI00
aI01
aI00
aI00
aI00
aI01
aI00
aI01
aI01
aI01
aI00
aI01
aa(lp94
I01
aI00
aI01
aI00
aI01
aI01
aI01
aI00
aI00
aI00
aI00
aI00
aI01
aI00
aI00
aI01
aa(lp95
I01
aI00
aI00
aI00
aI00
aI00
aI00
aI00
aI00
aI00
aI01
aI00
aI01
aI00
aI01
aI01
aa(lp96
I01
aI01
aI00
aI01
aI01
aI01
aI00
aI01
aI01
aI00
aI01
aI00
aI00
aI00
aI00
aI01
aa(lp97
I01
aI00
aI00
aI01
aI00
aI01
aI00
aI01
aI00
aI00
aI01
aI01
aI00
aI01
aI00
aI01
aa(lp98
I01
aI01
aI00
aI01
aI00
aI01
aI01
aI01
aI01
aI00
aI00
aI01
aI01
aI01
aI00
aI01
aa(lp99
I01
aI00
aI00
aI00
aI00
aI01
aI00
aI01
aI01
aI00
aI01
aI01
aI00
aI01
aI00
aI01
aa(lp100
I01
aI01
aI00
aI01
aI01
aI01
aI00
aI00
aI01
aI00
aI00
aI01
aI00
aI00
aI00
aI01
aa(lp101
I01
aI00
aI00
aI00
aI00
aI00
aI00
aI01
aI01
aI01
aI00
aI01
aI01
aI00
aI01
aI01
aa(lp102
I01
aI00
aI01
aI00
aI01
aI00
aI01
aI01
aI00
aI00
aI00
aI00
aI00
aI00
aI00
aI01
aa(lp103
I01
aI01
aI01
aI01
aI01
aI00
aI00
aI00
aI00
aI00
aI01
aI01
aI01
aI01
aI01
aI01
aa(lp104
I01
aI00
aI00
aI00
aI00
aI00
aI01
aI00
aI01
aI00
aI00
aI00
aI00
aI00
aI00
aI01
aa(lp105
I01
aI00
aI01
aI01
aI01
aI01
aI01
aI01
aI01
aI01
aI01
aI01
aI01
aI01
aI01
aI01
aa(lp106
I01
aI00
aI00
aI00
aI00
aI00
aI00
aI00
aI00
aI00
aI00
aI00
aI00
aI00
aI00
aI01
aa(lp107
I01
aI01
aI01
aI01
aI01
aI01
aI01
aI01
aI01
aI01
aI01
aI01
aI01
aI01
aI01
aI01
aasg61
I16
sbsS'layoutText'
p108
(lp109
S'%%%%%%%%%%%%%%%%%%%%%%%%%%%%%%%%'
p110
aS'%   %. %.%.%       %     %.%.%4%'
p111
aS'% % %%       %%  %   %%%   %.%2%'
p112
aS'% % %. % %%%    %%%% .%..% % % %'
p113
aS'% % %% % ..% %   %   %%%%% % % %'
p114
aS'% %    %%%%% %%%   %%%.% o % % %'
p115
aS'% %% % ..%.  %.%%%       %   % %'
p116
aS'% %. %%.%%%%        %.%%%%  %% %'
p117
aS'% %%  %%%%.%        %%%%.%% .% %'
p118
aS'% %   %       %%%.%  .%.. % %% %'
p119
aS'% % % o %.%%%   %%% %%%%%    % %'
p120
aS'% % % %%%%%   %   % %.. % %% % %'
p121
aS'% % % %..%. %%%%    %%% % .% % %'
p122
aS'%1%.%   %%%   %  %%       %% % %'
p123
aS'%3%.%.%     %       %.%.% .%   %'
p124
aS'%%%%%%%%%%%%%%%%%%%%%%%%%%%%%%%%'
p125
asbsS'actions'
p126
(lp127
(I0
S'North'
p128
tp129
a(I1
S'South'
p130
tp131
a(I2
g128
tp132
a(I3
g130
tp133
a(I0
g128
tp134
a(I1
g130
tp135
a(I2
g128
tp136
a(I3
g130
tp137
a(I0
g128
tp138
a(I1
g130
tp139
a(I2
g128
tp140
a(I3
g130
tp141
a(I0
g128
tp142
a(I1
g130
tp143
a(I2
g128
tp144
a(I3
g130
tp145
a(I0
g128
tp146
a(I1
g130
tp147
a(I2
g128
tp148
a(I3
g130
tp149
a(I0
g128
tp150
a(I1
g130
tp151
a(I2
g128
tp152
a(I3
g130
tp153
a(I0
g128
tp154
a(I1
g130
tp155
a(I2
g128
tp156
a(I3
g130
tp157
a(I0
g128
tp158
a(I1
g130
tp159
a(I2
g128
tp160
a(I3
g130
tp161
a(I0
g128
tp162
a(I1
g130
tp163
a(I2
g128
tp164
a(I3
g130
tp165
a(I0
g128
tp166
a(I1
g130
tp167
a(I2
g128
tp168
a(I3
g130
tp169
a(I0
g128
tp170
a(I1
g130
tp171
a(I2
g128
tp172
a(I3
g130
tp173
a(I0
g128
tp174
a(I1
g130
tp175
a(I2
g128
tp176
a(I3
g130
tp177
a(I0
S'East'
p178
tp179
a(I1
S'West'
p180
tp181
a(I2
g128
tp182
a(I3
g130
tp183
a(I0
g178
tp184
a(I1
g180
tp185
a(I2
g178
tp186
a(I3
g180
tp187
a(I0
g130
tp188
a(I1
g128
tp189
a(I2
g178
tp190
a(I3
g180
tp191
a(I0
g130
tp192
a(I1
g128
tp193
a(I2
g130
tp194
a(I3
g128
tp195
a(I0
g130
tp196
a(I1
g128
tp197
a(I2
g130
tp198
a(I3
g128
tp199
a(I0
g130
tp200
a(I1
g128
tp201
a(I2
g130
tp202
a(I3
g128
tp203
a(I0
g178
tp204
a(I1
g180
tp205
a(I2
g130
tp206
a(I3
g128
tp207
a(I0
g178
tp208
a(I1
g128
tp209
a(I2
g178
tp210
a(I3
g180
tp211
a(I0
g178
tp212
a(I1
g128
tp213
a(I2
g130
tp214
a(I3
g128
tp215
a(I0
g128
tp216
a(I1
g128
tp217
a(I2
g130
tp218
a(I3
g128
tp219
a(I0
g128
tp220
a(I1
g128
tp221
a(I2
g130
tp222
a(I3
g128
tp223
a(I0
g128
tp224
a(I1
g180
tp225
a(I2
g130
tp226
a(I3
g128
tp227
a(I0
g178
tp228
a(I1
g128
tp229
a(I2
g178
tp230
a(I3
g180
tp231
a(I0
g178
tp232
a(I1
g180
tp233
a(I2
g130
tp234
a(I3
g128
tp235
a(I0
g178
tp236
a(I1
g180
tp237
a(I2
g178
tp238
a(I3
g180
tp239
a(I0
g178
tp240
a(I1
g130
tp241
a(I2
g178
tp242
a(I3
g180
tp243
a(I0
g178
tp244
a(I1
g180
tp245
a(I2
g128
tp246
a(I3
g130
tp247
a(I0
g178
tp248
a(I1
g180
tp249
a(I2
g178
tp250
a(I3
g180
tp251
a(I0
g130
tp252
a(I1
g180
tp253
a(I2
g178
tp254
a(I3
g180
tp255
a(I0
g130
tp256
a(I1
g180
tp257
a(I2
g178
tp258
a(I3
g180
tp259
a(I0
g130
tp260
a(I1
g180
tp261
a(I2
g178
tp262
a(I3
g180
tp263
a(I0
g130
tp264
a(I1
g180
tp265
a(I2
g178
tp266
a(I3
g180
tp267
a(I0
g130
tp268
a(I1
g130
tp269
a(I2
g128
tp270
a(I3
g130
tp271
a(I0
g178
tp272
a(I1
g180
tp273
a(I2
g178
tp274
a(I3
g180
tp275
a(I0
g130
tp276
a(I1
g180
tp277
a(I2
g178
tp278
a(I3
g180
tp279
a(I0
g130
tp280
a(I1
g180
tp281
a(I2
g128
tp282
a(I3
g180
tp283
a(I0
g128
tp284
a(I1
S'Stop'
p285
tp286
a(I2
g178
tp287
a(I3
g285
tp288
a(I0
g180
tp289
a(I1
g130
tp290
a(I2
g285
tp291
a(I3
g285
tp292
a(I0
g178
tp293
a(I1
g130
tp294
a(I2
g285
tp295
a(I3
g285
tp296
a(I0
g130
tp297
a(I1
g130
tp298
a(I2
g285
tp299
a(I3
g285
tp300
a(I0
g130
tp301
a(I1
g130
tp302
a(I2
g285
tp303
a(I3
g285
tp304
a(I0
g178
tp305
a(I1
g130
tp306
a(I2
g285
tp307
a(I3
g285
tp308
a(I0
g178
tp309
a(I1
g130
tp310
a(I2
g285
tp311
a(I3
g285
tp312
a(I0
g130
tp313
a(I1
g130
tp314
a(I2
g285
tp315
a(I3
g285
tp316
a(I0
g178
tp317
a(I1
g130
tp318
a(I2
g285
tp319
a(I3
g285
tp320
a(I0
g178
tp321
a(I1
g130
tp322
a(I2
g285
tp323
a(I3
g285
tp324
a(I0
g130
tp325
a(I1
g130
tp326
a(I2
g285
tp327
a(I3
g285
tp328
a(I0
g178
tp329
a(I1
g130
tp330
a(I2
g285
tp331
a(I3
g285
tp332
a(I0
g178
tp333
a(I1
g130
tp334
a(I2
g285
tp335
a(I3
g285
tp336
a(I0
g130
tp337
a(I1
g180
tp338
a(I2
g285
tp339
a(I3
g285
tp340
a(I0
g178
tp341
a(I1
g180
tp342
a(I2
g285
tp343
a(I3
g285
tp344
a(I0
g178
tp345
a(I1
g128
tp346
a(I2
g285
tp347
a(I3
g285
tp348
a(I0
g130
tp349
a(I1
g128
tp350
a(I2
g285
tp351
a(I3
g285
tp352
a(I0
g128
tp353
a(I1
g128
tp354
a(I2
g285
tp355
a(I3
g285
tp356
a(I0
g178
tp357
a(I1
g128
tp358
a(I2
g285
tp359
a(I3
g285
tp360
a(I0
g178
tp361
a(I1
g180
tp362
a(I2
g285
tp363
a(I3
g285
tp364
a(I0
g130
tp365
a(I1
g180
tp366
a(I2
g285
tp367
a(I3
g285
tp368
a(I0
g128
tp369
a(I1
g180
tp370
a(I2
g285
tp371
a(I3
g285
tp372
a(I0
g128
tp373
a(I1
g130
tp374
a(I2
g285
tp375
a(I3
g285
tp376
a(I0
g128
tp377
a(I1
g130
tp378
a(I2
g285
tp379
a(I3
g285
tp380
a(I0
g180
tp381
a(I1
g130
tp382
a(I2
g285
tp383
a(I3
g285
tp384
a(I0
g180
tp385
a(I1
g180
tp386
a(I2
g285
tp387
a(I3
g285
tp388
a(I0
g178
tp389
a(I1
g180
tp390
a(I2
g285
tp391
a(I3
g285
tp392
a(I0
g178
tp393
a(I1
g128
tp394
a(I2
g285
tp395
a(I3
g285
tp396
a(I0
g130
tp397
a(I1
g130
tp398
a(I2
g285
tp399
a(I3
g285
tp400
a(I0
g128
tp401
a(I1
g180
tp402
a(I2
g285
tp403
a(I3
g285
tp404
a(I0
g128
tp405
a(I1
g180
tp406
a(I2
g285
tp407
a(I3
g285
tp408
a(I0
g128
tp409
a(I1
g180
tp410
a(I2
g285
tp411
a(I3
g285
tp412
a(I0
g128
tp413
a(I1
g180
tp414
a(I2
g285
tp415
a(I3
g285
tp416
a(I0
g128
tp417
a(I1
g130
tp418
a(I2
g285
tp419
a(I3
g285
tp420
a(I0
g128
tp421
a(I1
g180
tp422
a(I2
g285
tp423
a(I3
g285
tp424
a(I0
g128
tp425
a(I1
g180
tp426
a(I2
g285
tp427
a(I3
g285
tp428
a(I0
g128
tp429
a(I1
g180
tp430
a(I2
g285
tp431
a(I3
g285
tp432
a(I0
g128
tp433
a(I1
g180
tp434
a(I2
g180
tp435
a(I3
g130
tp436
a(I0
g128
tp437
a(I1
g180
tp438
a(I2
g180
tp439
a(I3
g128
tp440
a(I0
g128
tp441
a(I1
g180
tp442
a(I2
g130
tp443
a(I3
g130
tp444
a(I0
g128
tp445
a(I1
g128
tp446
a(I2
g130
tp447
a(I3
g285
tp448
a(I0
g178
tp449
a(I1
g180
tp450
a(I2
g130
tp451
a(I3
g128
tp452
a(I0
g178
tp453
a(I1
g180
tp454
a(I2
g130
tp455
a(I3
g130
tp456
a(I0
g130
tp457
a(I1
g130
tp458
a(I2
g180
tp459
a(I3
g285
tp460
a(I0
g130
tp461
a(I1
g180
tp462
a(I2
g180
tp463
a(I3
g285
tp464
a(I0
g130
tp465
a(I1
g180
tp466
a(I2
g130
tp467
a(I3
g285
tp468
a(I0
g130
tp469
a(I1
g180
tp470
a(I2
g130
tp471
a(I3
g285
tp472
a(I0
g178
tp473
a(I1
g180
tp474
a(I2
g130
tp475
a(I3
g178
tp476
a(I0
g130
tp477
a(I1
g128
tp478
a(I2
g180
tp479
a(I3
g180
tp480
a(I0
g130
tp481
a(I1
g128
tp482
a(I2
g180
tp483
a(I3
g285
tp484
a(I0
g130
tp485
a(I1
g178
tp486
a(I2
g180
tp487
a(I3
g178
tp488
a(I0
g178
tp489
a(I1
g180
tp490
a(I2
g180
tp491
a(I3
g180
tp492
a(I0
g130
tp493
a(I1
g130
tp494
a(I2
g128
tp495
a(I3
g285
tp496
a(I0
g130
tp497
a(I1
g130
tp498
a(I2
g130
tp499
a(I3
g178
tp500
a(I0
g130
tp501
a(I1
g130
tp502
a(I2
g178
tp503
a(I3
g180
tp504
a(I0
g130
tp505
a(I1
g130
tp506
a(I2
g178
tp507
a(I3
g178
tp508
a(I0
g130
tp509
a(I1
g130
tp510
a(I2
g178
tp511
a(I3
g180
tp512
a(I0
g178
tp513
a(I1
g130
tp514
a(I2
g178
tp515
a(I3
g178
tp516
a(I0
g178
tp517
a(I1
g130
tp518
a(I2
g128
tp519
a(I3
g180
tp520
a(I0
g130
tp521
a(I1
g130
tp522
a(I2
g128
tp523
a(I3
g128
tp524
a(I0
g178
tp525
a(I1
g130
tp526
a(I2
g128
tp527
a(I3
g130
tp528
a(I0
g178
tp529
a(I1
g130
tp530
a(I2
g178
tp531
a(I3
g178
tp532
a(I0
g178
tp533
a(I1
g130
tp534
a(I2
g178
tp535
a(I3
g180
tp536
a(I0
g178
tp537
a(I1
g130
tp538
a(I2
g128
tp539
a(I3
g178
tp540
a(I0
g128
tp541
a(I1
g130
tp542
a(I2
g128
tp543
a(I3
g180
tp544
a(I0
g178
tp545
a(I1
g180
tp546
a(I2
g128
tp547
a(I3
g178
tp548
a(I0
g178
tp549
a(I1
g180
tp550
a(I2
g178
tp551
a(I3
g180
tp552
a(I0
g130
tp553
a(I1
g128
tp554
a(I2
g178
tp555
a(I3
g285
tp556
a(I0
g178
tp557
a(I1
g128
tp558
a(I2
g285
tp559
a(I3
g285
tp560
a(I0
g178
tp561
a(I1
g128
tp562
a(I2
g285
tp563
a(I3
g285
tp564
a(I0
g178
tp565
a(I1
g128
tp566
a(I2
g285
tp567
a(I3
g285
tp568
a(I0
g128
tp569
a(I1
g180
tp570
a(I2
g285
tp571
a(I3
g285
tp572
a(I0
g128
tp573
a(I1
g180
tp574
a(I2
g285
tp575
a(I3
g285
tp576
a(I0
g178
tp577
a(I1
g180
tp578
a(I2
g285
tp579
a(I3
g285
tp580
a(I0
g178
tp581
a(I1
g130
tp582
a(I2
g285
tp583
a(I3
g285
tp584
a(I0
g178
tp585
a(I1
g130
tp586
a(I2
g285
tp587
a(I3
g285
tp588
a(I0
g128
tp589
a(I1
g130
tp590
a(I2
g285
tp591
a(I3
g285
tp592
a(I0
g128
tp593
a(I1
g180
tp594
a(I2
g285
tp595
a(I3
g285
tp596
a(I0
g128
tp597
a(I1
g180
tp598
a(I2
g285
tp599
a(I3
g285
tp600
a(I0
g178
tp601
a(I1
g180
tp602
a(I2
g285
tp603
a(I3
g285
tp604
a(I0
g178
tp605
a(I1
g180
tp606
a(I2
g285
tp607
a(I3
g285
tp608
a(I0
g180
tp609
a(I1
g180
tp610
a(I2
g285
tp611
a(I3
g285
tp612
a(I0
g180
tp613
a(I1
g180
tp614
a(I2
g285
tp615
a(I3
g285
tp616
a(I0
g128
tp617
a(I1
g130
tp618
a(I2
g285
tp619
a(I3
g285
tp620
a(I0
g285
tp621
a(I1
g180
tp622
a(I2
g285
tp623
a(I3
g285
tp624
a(I0
g285
tp625
a(I1
g180
tp626
a(I2
g285
tp627
a(I3
g285
tp628
a(I0
g285
tp629
a(I1
g180
tp630
a(I2
g285
tp631
a(I3
g285
tp632
a(I0
g285
tp633
a(I1
g180
tp634
a(I2
g180
tp635
a(I3
g285
tp636
a(I0
g285
tp637
a(I1
g180
tp638
a(I2
g180
tp639
a(I3
g178
tp640
a(I0
g130
tp641
a(I1
g180
tp642
a(I2
g130
tp643
a(I3
g178
tp644
a(I0
g130
tp645
a(I1
g128
tp646
a(I2
g130
tp647
a(I3
g178
tp648
a(I0
g130
tp649
a(I1
g180
tp650
a(I2
g130
tp651
a(I3
g130
tp652
a(I0
g130
tp653
a(I1
g180
tp654
a(I2
g180
tp655
a(I3
g130
tp656
a(I0
g130
tp657
a(I1
g130
tp658
a(I2
g180
tp659
a(I3
g130
tp660
a(I0
g178
tp661
a(I1
g180
tp662
a(I2
g130
tp663
a(I3
g130
tp664
a(I0
g178
tp665
a(I1
g180
tp666
a(I2
g130
tp667
a(I3
g130
tp668
a(I0
g178
tp669
a(I1
g180
tp670
a(I2
g130
tp671
a(I3
g178
tp672
a(I0
g178
tp673
a(I1
g180
tp674
a(I2
g180
tp675
a(I3
g178
tp676
a(I0
g178
tp677
a(I1
g128
tp678
a(I2
g180
tp679
a(I3
g178
tp680
a(I0
g178
tp681
a(I1
g180
tp682
a(I2
g180
tp683
a(I3
g178
tp684
a(I0
g130
tp685
a(I1
g180
tp686
a(I2
g180
tp687
a(I3
g178
tp688
a(I0
g178
tp689
a(I1
g130
tp690
a(I2
g128
tp691
a(I3
g178
tp692
a(I0
g285
tp693
a(I1
g128
tp694
a(I2
g180
tp695
a(I3
g130
tp696
a(I0
g285
tp697
a(I1
g128
tp698
a(I2
g180
tp699
a(I3
g178
tp700
a(I0
g128
tp701
a(I1
g128
tp702
a(I2
g128
tp703
a(I3
g180
tp704
a(I0
g128
tp705
a(I1
g128
tp706
a(I2
g128
tp707
a(I3
g128
tp708
a(I0
g128
tp709
a(I1
g128
tp710
a(I2
g128
tp711
a(I3
g180
tp712
a(I0
g128
tp713
a(I1
g180
tp714
a(I2
g128
tp715
a(I3
g180
tp716
a(I0
g128
tp717
a(I1
g128
tp718
a(I2
g180
tp719
a(I3
g180
tp720
a(I0
g128
tp721
a(I1
g128
tp722
a(I2
g128
tp723
a(I3
g180
tp724
a(I0
g128
tp725
a(I1
g180
tp726
a(I2
g128
tp727
a(I3
g180
tp728
a(I0
g128
tp729
a(I1
g285
tp730
a(I2
g180
tp731
a(I3
g180
tp732
a(I0
g285
tp733
a(I1
g130
tp734
a(I2
g178
tp735
a(I3
g128
tp736
a(I0
g128
tp737
a(I1
g130
tp738
a(I2
g130
tp739
a(I3
g180
tp740
a(I0
g128
tp741
a(I1
g130
tp742
a(I2
g178
tp743
a(I3
g180
tp744
a(I0
g128
tp745
a(I1
g130
tp746
a(I2
g130
tp747
a(I3
g180
tp748
a(I0
g128
tp749
a(I1
g130
tp750
a(I2
g130
tp751
a(I3
g128
tp752
a(I0
g178
tp753
a(I1
g130
tp754
a(I2
g130
tp755
a(I3
g285
tp756
a(I0
g178
tp757
a(I1
g130
tp758
a(I2
g128
tp759
a(I3
g285
tp760
a(I0
g130
tp761
a(I1
g130
tp762
a(I2
g178
tp763
a(I3
g130
tp764
a(I0
g130
tp765
a(I1
g130
tp766
a(I2
g178
tp767
a(I3
g128
tp768
a(I0
g130
tp769
a(I1
g130
tp770
a(I2
g128
tp771
a(I3
g130
tp772
a(I0
g130
tp773
a(I1
g130
tp774
a(I2
g178
tp775
a(I3
g128
tp776
a(I0
g178
tp777
a(I1
g130
tp778
a(I2
g178
tp779
a(I3
g178
tp780
a(I0
g178
tp781
a(I1
g180
tp782
a(I2
g178
tp783
a(I3
g180
tp784
a(I0
g178
tp785
a(I1
g180
tp786
a(I2
g178
tp787
a(I3
g130
tp788
a(I0
g128
tp789
a(I1
g128
tp790
a(I2
g178
tp791
a(I3
g128
tp792
a(I0
g128
tp793
a(I1
g128
tp794
a(I2
g178
tp795
a(I3
g178
tp796
a(I0
g128
tp797
a(I1
g128
tp798
a(I2
g130
tp799
a(I3
g180
tp800
a(I0
g178
tp801
a(I1
g128
tp802
a(I2
g178
tp803
a(I3
g130
tp804
a(I0
g178
tp805
a(I1
g180
tp806
a(I2
g180
tp807
a(I3
g128
tp808
a(I0
g178
tp809
a(I1
g128
tp810
a(I2
g178
tp811
a(I3
g130
tp812
a(I0
g178
tp813
a(I1
g128
tp814
a(I2
g180
tp815
a(I3
g128
tp816
a(I0
g178
tp817
a(I1
g128
tp818
a(I2
g178
tp819
a(I3
g178
tp820
a(I0
g178
tp821
a(I1
g128
tp822
a(I2
g178
tp823
a(I3
g180
tp824
a(I0
g128
tp825
a(I1
g180
tp826
a(I2
g130
tp827
a(I3
g285
tp828
a(I0
g178
tp829
a(I1
g128
tp830
a(I2
g285
tp831
a(I3
g285
tp832
a(I0
g178
tp833
a(I1
g180
tp834
a(I2
g285
tp835
a(I3
g285
tp836
a(I0
g178
tp837
a(I1
g180
tp838
a(I2
g285
tp839
a(I3
g285
tp840
a(I0
g178
tp841
a(I1
g130
tp842
a(I2
g285
tp843
a(I3
g285
tp844
a(I0
g178
tp845
a(I1
g180
tp846
a(I2
g285
tp847
a(I3
g285
tp848
a(I0
g178
tp849
a(I1
g180
tp850
a(I2
g285
tp851
a(I3
g285
tp852
a(I0
g130
tp853
a(I1
g180
tp854
a(I2
g285
tp855
a(I3
g285
tp856
a(I0
g178
tp857
a(I1
g180
tp858
a(I2
g285
tp859
a(I3
g285
tp860
a(I0
g178
tp861
a(I1
g180
tp862
a(I2
g285
tp863
a(I3
g285
tp864
a(I0
g130
tp865
a(I1
g180
tp866
a(I2
g285
tp867
a(I3
g285
tp868
a(I0
g178
tp869
a(I1
g130
tp870
a(I2
g285
tp871
a(I3
g285
tp872
a(I0
g180
tp873
a(I1
g180
tp874
a(I2
g285
tp875
a(I3
g285
tp876
a(I0
g128
tp877
a(I1
g180
tp878
a(I2
g285
tp879
a(I3
g285
tp880
a(I0
g128
tp881
a(I1
g180
tp882
a(I2
g128
tp883
a(I3
g130
tp884
a(I0
g178
tp885
a(I1
g180
tp886
a(I2
g180
tp887
a(I3
g128
tp888
a(I0
g178
tp889
a(I1
g128
tp890
a(I2
g180
tp891
a(I3
g178
tp892
a(I0
g178
tp893
a(I1
g130
tp894
a(I2
g128
tp895
a(I3
g180
tp896
a(I0
g178
tp897
a(I1
g180
tp898
a(I2
g128
tp899
a(I3
g178
tp900
a(I0
g130
tp901
a(I1
g180
tp902
a(I2
g128
tp903
a(I3
g180
tp904
a(I0
g130
tp905
a(I1
g128
tp906
a(I2
g180
tp907
a(I3
g178
tp908
a(I0
g180
tp909
a(I1
g180
tp910
a(I2
g128
tp911
a(I3
g180
tp912
a(I0
g178
tp913
a(I1
g180
tp914
a(I2
g180
tp915
a(I3
g130
tp916
a(I0
g128
tp917
a(I1
g285
tp918
a(I2
g180
tp919
a(I3
g128
tp920
a(I0
g178
tp921
a(I1
g130
tp922
a(I2
g178
tp923
a(I3
g130
tp924
a(I0
g178
tp925
a(I1
g130
tp926
a(I2
g178
tp927
a(I3
g128
tp928
a(I0
g128
tp929
a(I1
g130
tp930
a(I2
g130
tp931
a(I3
g285
tp932
a(I0
g130
tp933
a(I1
g130
tp934
a(I2
g130
tp935
a(I3
g178
tp936
a(I0
g130
tp937
a(I1
g130
tp938
a(I2
g178
tp939
a(I3
g180
tp940
a(I0
g130
tp941
a(I1
g130
tp942
a(I2
g130
tp943
a(I3
g285
tp944
a(I0
g130
tp945
a(I1
g130
tp946
a(I2
g130
tp947
a(I3
g130
tp948
a(I0
g180
tp949
a(I1
g130
tp950
a(I2
g130
tp951
a(I3
g128
tp952
a(I0
g180
tp953
a(I1
g130
tp954
a(I2
g128
tp955
a(I3
g285
tp956
a(I0
g130
tp957
a(I1
g130
tp958
a(I2
g178
tp959
a(I3
g285
tp960
a(I0
g180
tp961
a(I1
g130
tp962
a(I2
g178
tp963
a(I3
g178
tp964
a(I0
g180
tp965
a(I1
g130
tp966
a(I2
g130
tp967
a(I3
g180
tp968
a(I0
g128
tp969
a(I1
g180
tp970
a(I2
g285
tp971
a(I3
g285
tp972
a(I0
g130
tp973
a(I1
g180
tp974
a(I2
g285
tp975
a(I3
g285
tp976
a(I0
g180
tp977
a(I1
g128
tp978
a(I2
g285
tp979
a(I3
g285
tp980
a(I0
g130
tp981
a(I1
g128
tp982
a(I2
g285
tp983
a(I3
g285
tp984
a(I0
g128
tp985
a(I1
g128
tp986
a(I2
g285
tp987
a(I3
g285
tp988
a(I0
g180
tp989
a(I1
g128
tp990
a(I2
g285
tp991
a(I3
g285
tp992
a(I0
g180
tp993
a(I1
g180
tp994
a(I2
g285
tp995
a(I3
g285
tp996
a(I0
g180
tp997
a(I1
g128
tp998
a(I2
g285
tp999
a(I3
g285
tp1000
a(I0
g130
tp1001
a(I1
g128
tp1002
a(I2
g285
tp1003
a(I3
g285
tp1004
a(I0
g130
tp1005
a(I1
g128
tp1006
a(I2
g285
tp1007
a(I3
g285
tp1008
a(I0
g180
tp1009
a(I1
g180
tp1010
a(I2
g285
tp1011
a(I3
g285
tp1012
a(I0
g130
tp1013
a(I1
g128
tp1014
a(I2
g285
tp1015
a(I3
g285
tp1016
a(I0
g128
tp1017
a(I1
g128
tp1018
a(I2
g285
tp1019
a(I3
g285
tp1020
a(I0
g178
tp1021
a(I1
g180
tp1022
a(I2
g285
tp1023
a(I3
g285
tp1024
a(I0
g178
tp1025
a(I1
g180
tp1026
a(I2
g285
tp1027
a(I3
g285
tp1028
a(I0
g130
tp1029
a(I1
g130
tp1030
a(I2
g285
tp1031
a(I3
g285
tp1032
a(I0
g130
tp1033
a(I1
g180
tp1034
a(I2
g285
tp1035
a(I3
g285
tp1036
a(I0
g130
tp1037
a(I1
g180
tp1038
a(I2
g285
tp1039
a(I3
g285
tp1040
a(I0
g130
tp1041
a(I1
g180
tp1042
a(I2
g285
tp1043
a(I3
g285
tp1044
a(I0
g130
tp1045
a(I1
g180
tp1046
a(I2
g285
tp1047
a(I3
g285
tp1048
a(I0
g178
tp1049
a(I1
g180
tp1050
a(I2
g285
tp1051
a(I3
g285
tp1052
a(I0
g178
tp1053
a(I1
g180
tp1054
a(I2
g285
tp1055
a(I3
g285
tp1056
a(I0
g178
tp1057
a(I1
g128
tp1058
a(I2
g285
tp1059
a(I3
g285
tp1060
a(I0
g178
tp1061
a(I1
g180
tp1062
a(I2
g285
tp1063
a(I3
g285
tp1064
a(I0
g178
tp1065
a(I1
g180
tp1066
a(I2
g285
tp1067
a(I3
g285
tp1068
a(I0
g178
tp1069
a(I1
g128
tp1070
a(I2
g285
tp1071
a(I3
g285
tp1072
a(I0
g128
tp1073
a(I1
g180
tp1074
a(I2
g128
tp1075
a(I3
g130
tp1076
a(I0
g178
tp1077
a(I1
g128
tp1078
a(I2
g180
tp1079
a(I3
g128
tp1080
a(I0
g180
tp1081
a(I1
g180
tp1082
a(I2
g180
tp1083
a(I3
g285
tp1084
a(I0
g128
tp1085
a(I1
g180
tp1086
a(I2
g128
tp1087
a(I3
g285
tp1088
a(I0
g128
tp1089
a(I1
g180
tp1090
a(I2
g180
tp1091
a(I3
g130
tp1092
a(I0
g128
tp1093
a(I1
g128
tp1094
a(I2
g128
tp1095
a(I3
g128
tp1096
a(I0
g180
tp1097
a(I1
g180
tp1098
a(I2
g128
tp1099
a(I3
g130
tp1100
a(I0
g180
tp1101
a(I1
g180
tp1102
a(I2
g128
tp1103
a(I3
g128
tp1104
a(I0
g178
tp1105
a(I1
g128
tp1106
a(I2
g128
tp1107
a(I3
g130
tp1108
a(I0
g128
tp1109
a(I1
g130
tp1110
a(I2
g128
tp1111
a(I3
g178
tp1112
a(I0
g130
tp1113
a(I1
g180
tp1114
a(I2
g128
tp1115
a(I3
g178
tp1116
a(I0
g178
tp1117
a(I1
g180
tp1118
a(I2
g128
tp1119
a(I3
g178
tp1120
a(I0
g130
tp1121
a(I1
g128
tp1122
a(I2
g180
tp1123
a(I3
g130
tp1124
a(I0
g178
tp1125
a(I1
g130
tp1126
a(I2
g180
tp1127
a(I3
g178
tp1128
a(I0
g178
tp1129
a(I1
g180
tp1130
a(I2
g180
tp1131
a(I3
g178
tp1132
a(I0
g128
tp1133
a(I1
g180
tp1134
a(I2
g180
tp1135
a(I3
g178
tp1136
a(I0
g128
tp1137
a(I1
g128
tp1138
a(I2
g180
tp1139
a(I3
g178
tp1140
a(I0
g178
tp1141
as.