(dp1
S'agents'
p2
(lp3
(igame
Agent
p4
(dp5
S'index'
p6
I0
sba(igame
Agent
p7
(dp8
g6
I0
sba(igame
Agent
p9
(dp10
g6
I0
sba(igame
Agent
p11
(dp12
g6
I0
sbasS'length'
p13
I3000
sS'layout'
p14
(ilayout
Layout
p15
(dp16
S'capsules'
p17
(lp18
(I6
I5
tp19
a(I25
I10
tp20
asS'numGhosts'
p21
I4
sS'food'
p22
(igame
Grid
p23
(dp24
S'CELLS_PER_INT'
p25
I30
sS'width'
p26
I32
sS'data'
p27
(lp28
(lp29
I00
aI00
aI00
aI00
aI00
aI00
aI00
aI00
aI00
aI00
aI00
aI00
aI00
aI00
aI00
aI00
aa(lp30
I00
aI00
aI00
aI00
aI00
aI00
aI00
aI00
aI00
aI00
aI00
aI00
aI00
aI00
aI00
aI00
aa(lp31
I00
aI00
aI00
aI00
aI00
aI00
aI00
aI00
aI00
aI00
aI00
aI00
aI00
aI00
aI00
aI00
aa(lp32
I00
aI01
aI01
aI00
aI00
aI00
aI00
aI00
aI01
aI00
aI00
aI00
aI00
aI00
aI00
aI00
aa(lp33
I00
aI00
aI00
aI00
aI00
aI00
aI00
aI00
aI00
aI00
aI00
aI00
aI00
aI00
aI00
aI00
aa(lp34
I00
aI01
aI00
aI00
aI00
aI00
aI00
aI00
aI00
aI00
aI00
aI00
aI01
aI00
aI01
aI00
aa(lp35
I00
aI00
aI00
aI00
aI00
aI00
aI00
aI00
aI00
aI00
aI00
aI00
aI00
aI00
aI00
aI00
aa(lp36
I00
aI00
aI00
aI01
aI00
aI00
aI00
aI00
aI01
aI01
aI00
aI00
aI00
aI00
aI00
aI00
aa(lp37
I00
aI00
aI00
aI01
aI00
aI00
aI00
aI00
aI00
aI01
aI00
aI00
aI00
aI00
aI01
aI00
aa(lp38
I00
aI00
aI00
aI00
aI00
aI01
aI00
aI00
aI00
aI00
aI00
aI01
aI00
aI00
aI00
aI00
aa(lp39
I00
aI00
aI00
aI01
aI00
aI00
aI00
aI01
aI00
aI01
aI00
aI01
aI00
aI00
aI01
aI00
aa(lp40
I00
aI00
aI00
aI00
aI00
aI00
aI00
aI00
aI00
aI00
aI00
aI00
aI00
aI00
aI00
aI00
aa(lp41
I00
aI00
aI00
aI00
aI00
aI00
aI00
aI00
aI00
aI00
aI00
aI00
aI00
aI00
aI00
aI00
aa(lp42
I00
aI00
aI00
aI00
aI00
aI00
aI00
aI00
aI00
aI00
aI00
aI00
aI00
aI00
aI00
aI00
aa(lp43
I00
aI00
aI00
aI00
aI00
aI00
aI00
aI00
aI00
aI01
aI00
aI00
aI00
aI00
aI00
aI00
aa(lp44
I00
aI00
aI00
aI00
aI00
aI00
aI00
aI00
aI00
aI00
aI00
aI00
aI00
aI00
aI00
aI00
aa(lp45
I00
aI00
aI00
aI00
aI00
aI00
aI00
aI00
aI00
aI00
aI00
aI00
aI00
aI00
aI00
aI00
aa(lp46
I00
aI00
aI00
aI00
aI00
aI00
aI01
aI00
aI00
aI00
aI00
aI00
aI00
aI00
aI00
aI00
aa(lp47
I00
aI00
aI00
aI00
aI00
aI00
aI00
aI00
aI00
aI00
aI00
aI00
aI00
aI00
aI00
aI00
aa(lp48
I00
aI00
aI00
aI00
aI00
aI00
aI00
aI00
aI00
aI00
aI00
aI00
aI00
aI00
aI00
aI00
aa(lp49
I00
aI00
aI00
aI00
aI00
aI00
aI00
aI00
aI00
aI00
aI00
aI00
aI00
aI00
aI00
aI00
aa(lp50
I00
aI01
aI00
aI00
aI01
aI00
aI01
aI00
aI01
aI00
aI00
aI00
aI01
aI00
aI00
aI00
aa(lp51
I00
aI00
aI00
aI00
aI01
aI00
aI00
aI00
aI00
aI00
aI01
aI00
aI00
aI00
aI00
aI00
aa(lp52
I00
aI01
aI00
aI00
aI00
aI00
aI01
aI00
aI00
aI00
aI00
aI00
aI01
aI00
aI00
aI00
aa(lp53
I00
aI00
aI00
aI00
aI00
aI00
aI01
aI01
aI00
aI00
aI00
aI00
aI01
aI00
aI00
aI00
aa(lp54
I00
aI00
aI00
aI00
aI00
aI00
aI00
aI00
aI00
aI00
aI00
aI00
aI00
aI00
aI00
aI00
aa(lp55
I00
aI01
aI00
aI01
aI00
aI00
aI00
aI00
aI00
aI00
aI00
aI00
aI00
aI00
aI01
aI00
aa(lp56
I00
aI00
aI00
aI00
aI00
aI00
aI00
aI00
aI00
aI00
aI00
aI00
aI00
aI00
aI00
aI00
aa(lp57
I00
aI00
aI00
aI00
aI00
aI00
aI00
aI01
aI00
aI00
aI00
aI00
aI00
aI01
aI01
aI00
aa(lp58
I00
aI00
aI00
aI00
aI00
aI00
aI00
aI00
aI00
aI00
aI00
aI00
aI00
aI00
aI00
aI00
aa(lp59
I00
aI00
aI00
aI00
aI00
aI00
aI00
aI00
aI00
aI00
aI00
aI00
aI00
aI00
aI00
aI00
aa(lp60
I00
aI00
aI00
aI00
aI00
aI00
aI00
aI00
aI00
aI00
aI00
aI00
aI00
aI00
aI00
aI00
aasS'height'
p61
I16
sbsS'agentPositions'
p62
(lp63
(I00
(I1
I2
tp64
tp65
a(I00
(I30
I13
tp66
tp67
a(I00
(I1
I1
tp68
tp69
a(I00
(I30
I14
tp70
tp71
asg61
I16
sg26
I32
sS'walls'
p72
(igame
Grid
p73
(dp74
g25
I30
sg26
I32
sg27
(lp75
(lp76
I01
aI01
aI01
aI01
aI01
aI01
aI01
aI01
aI01
aI01
aI01
aI01
aI01
aI01
aI01
aI01
aa(lp77
I01
aI00
aI00
aI00
aI00
aI00
aI00
aI00
aI00
aI00
aI00
aI00
aI00
aI00
aI00
aI01
aa(lp78
I01
aI01
aI01
aI01
aI01
aI01
aI01
aI01
aI01
aI01
aI01
aI01
aI01
aI01
aI00
aI01
aa(lp79
I01
aI00
aI00
aI00
aI00
aI00
aI00
aI01
aI00
aI01
aI00
aI00
aI00
aI00
aI00
aI01
aa(lp80
I01
aI01
aI01
aI01
aI01
aI01
aI00
aI00
aI00
aI00
aI00
aI01
aI01
aI01
aI01
aI01
aa(lp81
I01
aI00
aI00
aI00
aI00
aI00
aI00
aI00
aI01
aI01
aI00
aI01
aI00
aI01
aI00
aI01
aa(lp82
I01
aI01
aI00
aI01
aI01
aI00
aI01
aI01
aI01
aI00
aI00
aI00
aI00
aI00
aI00
aI01
aa(lp83
I01
aI00
aI00
aI00
aI01
aI00
aI00
aI01
aI00
aI00
aI01
aI01
aI01
aI00
aI01
aI01
aa(lp84
I01
aI00
aI01
aI00
aI01
aI01
aI00
aI01
aI01
aI00
aI01
aI00
aI00
aI00
aI00
aI01
aa(lp85
I01
aI00
aI01
aI01
aI01
aI00
aI00
aI01
aI01
aI01
aI01
aI00
aI01
aI00
aI01
aI01
aa(lp86
I01
aI00
aI01
aI00
aI01
aI01
aI00
aI00
aI01
aI00
aI01
aI00
aI01
aI00
aI00
aI01
aa(lp87
I01
aI00
aI00
aI00
aI00
aI01
aI00
aI01
aI01
aI00
aI01
aI01
aI01
aI00
aI01
aI01
aa(lp88
I01
aI01
aI00
aI01
aI00
aI01
aI00
aI00
aI00
aI00
aI00
aI00
aI00
aI00
aI00
aI01
aa(lp89
I01
aI00
aI00
aI01
aI00
aI00
aI00
aI00
aI00
aI01
aI01
aI01
aI00
aI01
aI00
aI01
aa(lp90
I01
aI00
aI01
aI01
aI01
aI00
aI01
aI00
aI00
aI00
aI01
aI00
aI00
aI01
aI00
aI01
aa(lp91
I01
aI00
aI00
aI01
aI00
aI00
aI01
aI00
aI00
aI01
aI01
aI00
aI00
aI00
aI00
aI01
aa(lp92
I01
aI00
aI00
aI00
aI00
aI01
aI01
aI00
aI00
aI01
aI00
aI00
aI01
aI00
aI00
aI01
aa(lp93
I01
aI00
aI01
aI00
aI00
aI01
aI00
aI00
aI00
aI01
aI00
aI01
aI01
aI01
aI00
aI01
aa(lp94
I01
aI00
aI01
aI00
aI01
aI01
aI01
aI00
aI00
aI00
aI00
aI00
aI01
aI00
aI00
aI01
aa(lp95
I01
aI00
aI00
aI00
aI00
aI00
aI00
aI00
aI00
aI00
aI01
aI00
aI01
aI00
aI01
aI01
aa(lp96
I01
aI01
aI00
aI01
aI01
aI01
aI00
aI01
aI01
aI00
aI01
aI00
aI00
aI00
aI00
aI01
aa(lp97
I01
aI00
aI00
aI01
aI00
aI01
aI00
aI01
aI00
aI00
aI01
aI01
aI00
aI01
aI00
aI01
aa(lp98
I01
aI01
aI00
aI01
aI00
aI01
aI01
aI01
aI01
aI00
aI00
aI01
aI01
aI01
aI00
aI01
aa(lp99
I01
aI00
aI00
aI00
aI00
aI01
aI00
aI01
aI01
aI00
aI01
aI01
aI00
aI01
aI00
aI01
aa(lp100
I01
aI01
aI00
aI01
aI01
aI01
aI00
aI00
aI01
aI00
aI00
aI01
aI00
aI00
aI00
aI01
aa(lp101
I01
aI00
aI00
aI00
aI00
aI00
aI00
aI01
aI01
aI01
aI00
aI01
aI01
aI00
aI01
aI01
aa(lp102
I01
aI00
aI01
aI00
aI01
aI00
aI01
aI01
aI00
aI00
aI00
aI00
aI00
aI00
aI00
aI01
aa(lp103
I01
aI01
aI01
aI01
aI01
aI00
aI00
aI00
aI00
aI00
aI01
aI01
aI01
aI01
aI01
aI01
aa(lp104
I01
aI00
aI00
aI00
aI00
aI00
aI01
aI00
aI01
aI00
aI00
aI00
aI00
aI00
aI00
aI01
aa(lp105
I01
aI00
aI01
aI01
aI01
aI01
aI01
aI01
aI01
aI01
aI01
aI01
aI01
aI01
aI01
aI01
aa(lp106
I01
aI00
aI00
aI00
aI00
aI00
aI00
aI00
aI00
aI00
aI00
aI00
aI00
aI00
aI00
aI01
aa(lp107
I01
aI01
aI01
aI01
aI01
aI01
aI01
aI01
aI01
aI01
aI01
aI01
aI01
aI01
aI01
aI01
aasg61
I16
sbsS'layoutText'
p108
(lp109
S'%%%%%%%%%%%%%%%%%%%%%%%%%%%%%%%%'
p110
aS'%   %. %.%.%       %     %.%.%4%'
p111
aS'% % %%       %%  %   %%%   %.%2%'
p112
aS'% % %. % %%%    %%%% .%..% % % %'
p113
aS'% % %% % ..% %   %   %%%%% % % %'
p114
aS'% %    %%%%% %%%   %%%.% o % % %'
p115
aS'% %% % ..%.  %.%%%       %   % %'
p116
aS'% %. %%.%%%%        %.%%%%  %% %'
p117
aS'% %%  %%%%.%        %%%%.%% .% %'
p118
aS'% %   %       %%%.%  .%.. % %% %'
p119
aS'% % % o %.%%%   %%% %%%%%    % %'
p120
aS'% % % %%%%%   %   % %.. % %% % %'
p121
aS'% % % %..%. %%%%    %%% % .% % %'
p122
aS'%1%.%   %%%   %  %%       %% % %'
p123
aS'%3%.%.%     %       %.%.% .%   %'
p124
aS'%%%%%%%%%%%%%%%%%%%%%%%%%%%%%%%%'
p125
asbsS'actions'
p126
(lp127
(I0
S'North'
p128
tp129
a(I1
S'South'
p130
tp131
a(I2
g128
tp132
a(I3
g130
tp133
a(I0
g128
tp134
a(I1
g130
tp135
a(I2
g128
tp136
a(I3
g130
tp137
a(I0
g128
tp138
a(I1
g130
tp139
a(I2
g128
tp140
a(I3
g130
tp141
a(I0
g128
tp142
a(I1
g130
tp143
a(I2
g128
tp144
a(I3
g130
tp145
a(I0
g128
tp146
a(I1
g130
tp147
a(I2
g128
tp148
a(I3
g130
tp149
a(I0
g128
tp150
a(I1
g130
tp151
a(I2
g128
tp152
a(I3
g130
tp153
a(I0
g128
tp154
a(I1
g130
tp155
a(I2
g128
tp156
a(I3
g130
tp157
a(I0
g128
tp158
a(I1
g130
tp159
a(I2
g128
tp160
a(I3
g130
tp161
a(I0
g128
tp162
a(I1
g130
tp163
a(I2
g128
tp164
a(I3
g130
tp165
a(I0
g128
tp166
a(I1
g130
tp167
a(I2
g128
tp168
a(I3
g130
tp169
a(I0
g128
tp170
a(I1
g130
tp171
a(I2
g128
tp172
a(I3
g130
tp173
a(I0
g128
tp174
a(I1
g130
tp175
a(I2
g128
tp176
a(I3
g130
tp177
a(I0
S'East'
p178
tp179
a(I1
S'West'
p180
tp181
a(I2
g128
tp182
a(I3
g130
tp183
a(I0
g178
tp184
a(I1
g180
tp185
a(I2
g178
tp186
a(I3
g180
tp187
a(I0
g130
tp188
a(I1
g128
tp189
a(I2
g178
tp190
a(I3
g180
tp191
a(I0
g130
tp192
a(I1
g128
tp193
a(I2
g130
tp194
a(I3
g128
tp195
a(I0
g130
tp196
a(I1
g128
tp197
a(I2
g130
tp198
a(I3
g128
tp199
a(I0
g130
tp200
a(I1
g128
tp201
a(I2
g130
tp202
a(I3
g128
tp203
a(I0
g178
tp204
a(I1
g180
tp205
a(I2
g130
tp206
a(I3
g128
tp207
a(I0
g178
tp208
a(I1
g128
tp209
a(I2
g178
tp210
a(I3
g180
tp211
a(I0
g178
tp212
a(I1
g128
tp213
a(I2
g130
tp214
a(I3
g180
tp215
a(I0
g128
tp216
a(I1
g128
tp217
a(I2
g130
tp218
a(I3
g180
tp219
a(I0
g128
tp220
a(I1
g180
tp221
a(I2
g130
tp222
a(I3
g130
tp223
a(I0
g128
tp224
a(I1
g128
tp225
a(I2
g130
tp226
a(I3
g130
tp227
a(I0
g178
tp228
a(I1
g128
tp229
a(I2
g178
tp230
a(I3
g130
tp231
a(I0
g178
tp232
a(I1
g180
tp233
a(I2
g130
tp234
a(I3
g180
tp235
a(I0
g178
tp236
a(I1
g180
tp237
a(I2
g178
tp238
a(I3
g180
tp239
a(I0
g178
tp240
a(I1
g130
tp241
a(I2
g178
tp242
a(I3
g180
tp243
a(I0
g178
tp244
a(I1
g180
tp245
a(I2
g128
tp246
a(I3
g180
tp247
a(I0
g178
tp248
a(I1
g180
tp249
a(I2
g178
tp250
a(I3
g180
tp251
a(I0
g130
tp252
a(I1
g180
tp253
a(I2
g178
tp254
a(I3
g180
tp255
a(I0
g130
tp256
a(I1
g180
tp257
a(I2
g178
tp258
a(I3
g130
tp259
a(I0
g130
tp260
a(I1
g180
tp261
a(I2
g178
tp262
a(I3
g180
tp263
a(I0
g130
tp264
a(I1
g180
tp265
a(I2
g178
tp266
a(I3
g180
tp267
a(I0
g130
tp268
a(I1
g130
tp269
a(I2
g128
tp270
a(I3
g180
tp271
a(I0
g130
tp272
a(I1
g180
tp273
a(I2
g128
tp274
a(I3
g180
tp275
a(I0
g128
tp276
a(I1
g180
tp277
a(I2
g130
tp278
a(I3
g180
tp279
a(I0
g178
tp280
a(I1
g180
tp281
a(I2
g178
tp282
a(I3
g180
tp283
a(I0
g178
tp284
a(I1
g130
tp285
a(I2
g178
tp286
a(I3
g128
tp287
a(I0
g178
tp288
a(I1
g178
tp289
a(I2
g180
tp290
a(I3
g180
tp291
a(I0
g130
tp292
a(I1
g128
tp293
a(I2
g130
tp294
a(I3
g180
tp295
a(I0
g180
tp296
a(I1
g180
tp297
a(I2
g128
tp298
a(I3
g128
tp299
a(I0
g128
tp300
a(I1
g130
tp301
a(I2
g178
tp302
a(I3
g180
tp303
a(I0
g130
tp304
a(I1
g128
tp305
a(I2
g178
tp306
a(I3
g178
tp307
a(I0
g178
tp308
a(I1
g180
tp309
a(I2
g128
tp310
a(I3
g130
tp311
a(I0
g180
tp312
a(I1
g128
tp313
a(I2
g180
tp314
a(I3
g130
tp315
a(I0
g128
tp316
a(I1
g130
tp317
a(I2
g130
tp318
a(I3
g180
tp319
a(I0
g130
tp320
a(I1
g130
tp321
a(I2
g180
tp322
a(I3
g180
tp323
a(I0
g180
tp324
a(I1
g130
tp325
a(I2
g130
tp326
a(I3
g180
tp327
a(I0
g130
tp328
a(I1
g130
tp329
a(I2
g130
tp330
a(I3
g180
tp331
a(I0
g130
tp332
a(I1
g130
tp333
a(I2
g130
tp334
a(I3
g128
tp335
a(I0
g130
tp336
a(I1
g130
tp337
a(I2
g180
tp338
a(I3
g128
tp339
a(I0
g180
tp340
a(I1
g130
tp341
a(I2
g180
tp342
a(I3
g178
tp343
a(I0
g180
tp344
a(I1
g130
tp345
a(I2
g130
tp346
a(I3
g180
tp347
a(I0
g130
tp348
a(I1
g130
tp349
a(I2
g130
tp350
a(I3
g130
tp351
a(I0
g130
tp352
a(I1
g130
tp353
a(I2
g130
tp354
a(I3
g180
tp355
a(I0
g130
tp356
a(I1
g130
tp357
a(I2
g180
tp358
a(I3
g180
tp359
a(I0
g180
tp360
a(I1
g130
tp361
a(I2
g180
tp362
a(I3
g130
tp363
a(I0
g180
tp364
a(I1
g130
tp365
a(I2
g180
tp366
a(I3
g128
tp367
a(I0
g180
tp368
a(I1
g180
tp369
a(I2
g180
tp370
a(I3
g128
tp371
a(I0
g180
tp372
a(I1
g180
tp373
a(I2
g128
tp374
a(I3
g128
tp375
a(I0
g128
tp376
a(I1
g128
tp377
a(I2
g180
tp378
a(I3
g128
tp379
a(I0
g180
tp380
a(I1
g128
tp381
a(I2
g180
tp382
a(I3
g178
tp383
a(I0
g180
tp384
a(I1
g128
tp385
a(I2
g128
tp386
a(I3
g180
tp387
a(I0
g128
tp388
a(I1
g128
tp389
a(I2
g128
tp390
a(I3
g128
tp391
a(I0
g128
tp392
a(I1
g180
tp393
a(I2
g128
tp394
a(I3
g180
tp395
a(I0
g128
tp396
a(I1
g180
tp397
a(I2
g178
tp398
a(I3
g128
tp399
a(I0
g178
tp400
a(I1
g180
tp401
a(I2
g178
tp402
a(I3
g128
tp403
a(I0
g178
tp404
a(I1
g130
tp405
a(I2
g128
tp406
a(I3
g180
tp407
a(I0
g128
tp408
a(I1
g130
tp409
a(I2
g178
tp410
a(I3
g178
tp411
a(I0
g178
tp412
a(I1
g130
tp413
a(I2
g178
tp414
a(I3
g128
tp415
a(I0
g178
tp416
a(I1
g180
tp417
a(I2
g178
tp418
a(I3
g128
tp419
a(I0
g178
tp420
a(I1
g180
tp421
a(I2
g178
tp422
a(I3
g178
tp423
a(I0
g178
tp424
a(I1
g180
tp425
a(I2
g178
tp426
a(I3
g178
tp427
a(I0
g178
tp428
a(I1
g180
tp429
a(I2
g128
tp430
a(I3
g130
tp431
a(I0
g128
tp432
a(I1
g180
tp433
a(I2
g128
tp434
a(I3
g178
tp435
a(I0
g128
tp436
a(I1
g180
tp437
a(I2
g128
tp438
a(I3
g178
tp439
a(I0
g128
tp440
a(I1
g128
tp441
a(I2
g128
tp442
a(I3
g180
tp443
a(I0
g128
tp444
a(I1
g180
tp445
a(I2
g128
tp446
a(I3
g130
tp447
a(I0
g128
tp448
a(I1
g180
tp449
a(I2
g128
tp450
a(I3
g128
tp451
a(I0
g128
tp452
a(I1
g180
tp453
a(I2
g128
tp454
a(I3
g180
tp455
a(I0
g178
tp456
a(I1
g128
tp457
a(I2
g128
tp458
a(I3
g128
tp459
a(I0
g178
tp460
a(I1
g180
tp461
a(I2
g178
tp462
a(I3
g128
tp463
a(I0
g178
tp464
a(I1
g128
tp465
a(I2
g178
tp466
a(I3
g128
tp467
a(I0
g128
tp468
a(I1
g180
tp469
a(I2
g178
tp470
a(I3
g180
tp471
a(I0
g178
tp472
a(I1
g180
tp473
a(I2
g178
tp474
a(I3
g178
tp475
a(I0
g128
tp476
a(I1
g128
tp477
a(I2
g178
tp478
a(I3
g128
tp479
a(I0
g178
tp480
a(I1
g180
tp481
a(I2
g178
tp482
a(I3
g128
tp483
a(I0
g178
tp484
a(I1
g180
tp485
a(I2
g130
tp486
a(I3
g180
tp487
a(I0
g130
tp488
a(I1
g180
tp489
a(I2
g178
tp490
a(I3
g178
tp491
a(I0
g178
tp492
a(I1
g128
tp493
a(I2
g178
tp494
a(I3
g130
tp495
a(I0
g178
tp496
a(I1
g130
tp497
a(I2
g130
tp498
a(I3
g178
tp499
a(I0
g130
tp500
a(I1
g180
tp501
a(I2
g178
tp502
a(I3
g178
tp503
a(I0
g128
tp504
a(I1
g130
tp505
a(I2
g180
tp506
a(I3
g130
tp507
a(I0
g128
tp508
a(I1
g128
tp509
a(I2
g128
tp510
a(I3
g130
tp511
a(I0
g178
tp512
a(I1
g178
tp513
a(I2
g128
tp514
a(I3
g178
tp515
a(I0
g178
tp516
a(I1
g178
tp517
a(I2
g178
tp518
a(I3
g178
tp519
a(I0
g178
tp520
a(I1
g178
tp521
a(I2
g178
tp522
a(I3
g180
tp523
a(I0
g178
tp524
a(I1
g128
tp525
a(I2
g178
tp526
a(I3
g180
tp527
a(I0
g130
tp528
a(I1
g128
tp529
a(I2
g178
tp530
a(I3
g128
tp531
a(I0
g130
tp532
a(I1
g128
tp533
a(I2
g130
tp534
a(I3
g128
tp535
a(I0
g180
tp536
a(I1
g180
tp537
a(I2
g178
tp538
a(I3
g128
tp539
a(I0
g178
tp540
a(I1
g180
tp541
a(I2
g178
tp542
a(I3
g130
tp543
a(I0
g128
tp544
a(I1
g178
tp545
a(I2
g128
tp546
a(I3
g178
tp547
a(I0
g178
tp548
a(I1
g178
tp549
a(I2
g130
tp550
a(I3
g178
tp551
a(I0
g178
tp552
a(I1
g130
tp553
a(I2
g130
tp554
a(I3
g128
tp555
as.