(dp1
S'agents'
p2
(lp3
(igame
Agent
p4
(dp5
S'index'
p6
I0
sba(igame
Agent
p7
(dp8
g6
I0
sba(igame
Agent
p9
(dp10
g6
I0
sba(igame
Agent
p11
(dp12
g6
I0
sbasS'length'
p13
I3000
sS'layout'
p14
(ilayout
Layout
p15
(dp16
S'capsules'
p17
(lp18
(I6
I5
tp19
a(I25
I10
tp20
asS'numGhosts'
p21
I4
sS'food'
p22
(igame
Grid
p23
(dp24
S'CELLS_PER_INT'
p25
I30
sS'width'
p26
I32
sS'data'
p27
(lp28
(lp29
I00
aI00
aI00
aI00
aI00
aI00
aI00
aI00
aI00
aI00
aI00
aI00
aI00
aI00
aI00
aI00
aa(lp30
I00
aI00
aI00
aI00
aI00
aI00
aI00
aI00
aI00
aI00
aI00
aI00
aI00
aI00
aI00
aI00
aa(lp31
I00
aI00
aI00
aI00
aI00
aI00
aI00
aI00
aI00
aI00
aI00
aI00
aI00
aI00
aI00
aI00
aa(lp32
I00
aI01
aI01
aI00
aI00
aI00
aI00
aI00
aI01
aI00
aI00
aI00
aI00
aI00
aI00
aI00
aa(lp33
I00
aI00
aI00
aI00
aI00
aI00
aI00
aI00
aI00
aI00
aI00
aI00
aI00
aI00
aI00
aI00
aa(lp34
I00
aI01
aI00
aI00
aI00
aI00
aI00
aI00
aI00
aI00
aI00
aI00
aI01
aI00
aI01
aI00
aa(lp35
I00
aI00
aI00
aI00
aI00
aI00
aI00
aI00
aI00
aI00
aI00
aI00
aI00
aI00
aI00
aI00
aa(lp36
I00
aI00
aI00
aI01
aI00
aI00
aI00
aI00
aI01
aI01
aI00
aI00
aI00
aI00
aI00
aI00
aa(lp37
I00
aI00
aI00
aI01
aI00
aI00
aI00
aI00
aI00
aI01
aI00
aI00
aI00
aI00
aI01
aI00
aa(lp38
I00
aI00
aI00
aI00
aI00
aI01
aI00
aI00
aI00
aI00
aI00
aI01
aI00
aI00
aI00
aI00
aa(lp39
I00
aI00
aI00
aI01
aI00
aI00
aI00
aI01
aI00
aI01
aI00
aI01
aI00
aI00
aI01
aI00
aa(lp40
I00
aI00
aI00
aI00
aI00
aI00
aI00
aI00
aI00
aI00
aI00
aI00
aI00
aI00
aI00
aI00
aa(lp41
I00
aI00
aI00
aI00
aI00
aI00
aI00
aI00
aI00
aI00
aI00
aI00
aI00
aI00
aI00
aI00
aa(lp42
I00
aI00
aI00
aI00
aI00
aI00
aI00
aI00
aI00
aI00
aI00
aI00
aI00
aI00
aI00
aI00
aa(lp43
I00
aI00
aI00
aI00
aI00
aI00
aI00
aI00
aI00
aI01
aI00
aI00
aI00
aI00
aI00
aI00
aa(lp44
I00
aI00
aI00
aI00
aI00
aI00
aI00
aI00
aI00
aI00
aI00
aI00
aI00
aI00
aI00
aI00
aa(lp45
I00
aI00
aI00
aI00
aI00
aI00
aI00
aI00
aI00
aI00
aI00
aI00
aI00
aI00
aI00
aI00
aa(lp46
I00
aI00
aI00
aI00
aI00
aI00
aI01
aI00
aI00
aI00
aI00
aI00
aI00
aI00
aI00
aI00
aa(lp47
I00
aI00
aI00
aI00
aI00
aI00
aI00
aI00
aI00
aI00
aI00
aI00
aI00
aI00
aI00
aI00
aa(lp48
I00
aI00
aI00
aI00
aI00
aI00
aI00
aI00
aI00
aI00
aI00
aI00
aI00
aI00
aI00
aI00
aa(lp49
I00
aI00
aI00
aI00
aI00
aI00
aI00
aI00
aI00
aI00
aI00
aI00
aI00
aI00
aI00
aI00
aa(lp50
I00
aI01
aI00
aI00
aI01
aI00
aI01
aI00
aI01
aI00
aI00
aI00
aI01
aI00
aI00
aI00
aa(lp51
I00
aI00
aI00
aI00
aI01
aI00
aI00
aI00
aI00
aI00
aI01
aI00
aI00
aI00
aI00
aI00
aa(lp52
I00
aI01
aI00
aI00
aI00
aI00
aI01
aI00
aI00
aI00
aI00
aI00
aI01
aI00
aI00
aI00
aa(lp53
I00
aI00
aI00
aI00
aI00
aI00
aI01
aI01
aI00
aI00
aI00
aI00
aI01
aI00
aI00
aI00
aa(lp54
I00
aI00
aI00
aI00
aI00
aI00
aI00
aI00
aI00
aI00
aI00
aI00
aI00
aI00
aI00
aI00
aa(lp55
I00
aI01
aI00
aI01
aI00
aI00
aI00
aI00
aI00
aI00
aI00
aI00
aI00
aI00
aI01
aI00
aa(lp56
I00
aI00
aI00
aI00
aI00
aI00
aI00
aI00
aI00
aI00
aI00
aI00
aI00
aI00
aI00
aI00
aa(lp57
I00
aI00
aI00
aI00
aI00
aI00
aI00
aI01
aI00
aI00
aI00
aI00
aI00
aI01
aI01
aI00
aa(lp58
I00
aI00
aI00
aI00
aI00
aI00
aI00
aI00
aI00
aI00
aI00
aI00
aI00
aI00
aI00
aI00
aa(lp59
I00
aI00
aI00
aI00
aI00
aI00
aI00
aI00
aI00
aI00
aI00
aI00
aI00
aI00
aI00
aI00
aa(lp60
I00
aI00
aI00
aI00
aI00
aI00
aI00
aI00
aI00
aI00
aI00
aI00
aI00
aI00
aI00
aI00
aasS'height'
p61
I16
sbsS'agentPositions'
p62
(lp63
(I00
(I1
I2
tp64
tp65
a(I00
(I30
I13
tp66
tp67
a(I00
(I1
I1
tp68
tp69
a(I00
(I30
I14
tp70
tp71
asg61
I16
sg26
I32
sS'walls'
p72
(igame
Grid
p73
(dp74
g25
I30
sg26
I32
sg27
(lp75
(lp76
I01
aI01
aI01
aI01
aI01
aI01
aI01
aI01
aI01
aI01
aI01
aI01
aI01
aI01
aI01
aI01
aa(lp77
I01
aI00
aI00
aI00
aI00
aI00
aI00
aI00
aI00
aI00
aI00
aI00
aI00
aI00
aI00
aI01
aa(lp78
I01
aI01
aI01
aI01
aI01
aI01
aI01
aI01
aI01
aI01
aI01
aI01
aI01
aI01
aI00
aI01
aa(lp79
I01
aI00
aI00
aI00
aI00
aI00
aI00
aI01
aI00
aI01
aI00
aI00
aI00
aI00
aI00
aI01
aa(lp80
I01
aI01
aI01
aI01
aI01
aI01
aI00
aI00
aI00
aI00
aI00
aI01
aI01
aI01
aI01
aI01
aa(lp81
I01
aI00
aI00
aI00
aI00
aI00
aI00
aI00
aI01
aI01
aI00
aI01
aI00
aI01
aI00
aI01
aa(lp82
I01
aI01
aI00
aI01
aI01
aI00
aI01
aI01
aI01
aI00
aI00
aI00
aI00
aI00
aI00
aI01
aa(lp83
I01
aI00
aI00
aI00
aI01
aI00
aI00
aI01
aI00
aI00
aI01
aI01
aI01
aI00
aI01
aI01
aa(lp84
I01
aI00
aI01
aI00
aI01
aI01
aI00
aI01
aI01
aI00
aI01
aI00
aI00
aI00
aI00
aI01
aa(lp85
I01
aI00
aI01
aI01
aI01
aI00
aI00
aI01
aI01
aI01
aI01
aI00
aI01
aI00
aI01
aI01
aa(lp86
I01
aI00
aI01
aI00
aI01
aI01
aI00
aI00
aI01
aI00
aI01
aI00
aI01
aI00
aI00
aI01
aa(lp87
I01
aI00
aI00
aI00
aI00
aI01
aI00
aI01
aI01
aI00
aI01
aI01
aI01
aI00
aI01
aI01
aa(lp88
I01
aI01
aI00
aI01
aI00
aI01
aI00
aI00
aI00
aI00
aI00
aI00
aI00
aI00
aI00
aI01
aa(lp89
I01
aI00
aI00
aI01
aI00
aI00
aI00
aI00
aI00
aI01
aI01
aI01
aI00
aI01
aI00
aI01
aa(lp90
I01
aI00
aI01
aI01
aI01
aI00
aI01
aI00
aI00
aI00
aI01
aI00
aI00
aI01
aI00
aI01
aa(lp91
I01
aI00
aI00
aI01
aI00
aI00
aI01
aI00
aI00
aI01
aI01
aI00
aI00
aI00
aI00
aI01
aa(lp92
I01
aI00
aI00
aI00
aI00
aI01
aI01
aI00
aI00
aI01
aI00
aI00
aI01
aI00
aI00
aI01
aa(lp93
I01
aI00
aI01
aI00
aI00
aI01
aI00
aI00
aI00
aI01
aI00
aI01
aI01
aI01
aI00
aI01
aa(lp94
I01
aI00
aI01
aI00
aI01
aI01
aI01
aI00
aI00
aI00
aI00
aI00
aI01
aI00
aI00
aI01
aa(lp95
I01
aI00
aI00
aI00
aI00
aI00
aI00
aI00
aI00
aI00
aI01
aI00
aI01
aI00
aI01
aI01
aa(lp96
I01
aI01
aI00
aI01
aI01
aI01
aI00
aI01
aI01
aI00
aI01
aI00
aI00
aI00
aI00
aI01
aa(lp97
I01
aI00
aI00
aI01
aI00
aI01
aI00
aI01
aI00
aI00
aI01
aI01
aI00
aI01
aI00
aI01
aa(lp98
I01
aI01
aI00
aI01
aI00
aI01
aI01
aI01
aI01
aI00
aI00
aI01
aI01
aI01
aI00
aI01
aa(lp99
I01
aI00
aI00
aI00
aI00
aI01
aI00
aI01
aI01
aI00
aI01
aI01
aI00
aI01
aI00
aI01
aa(lp100
I01
aI01
aI00
aI01
aI01
aI01
aI00
aI00
aI01
aI00
aI00
aI01
aI00
aI00
aI00
aI01
aa(lp101
I01
aI00
aI00
aI00
aI00
aI00
aI00
aI01
aI01
aI01
aI00
aI01
aI01
aI00
aI01
aI01
aa(lp102
I01
aI00
aI01
aI00
aI01
aI00
aI01
aI01
aI00
aI00
aI00
aI00
aI00
aI00
aI00
aI01
aa(lp103
I01
aI01
aI01
aI01
aI01
aI00
aI00
aI00
aI00
aI00
aI01
aI01
aI01
aI01
aI01
aI01
aa(lp104
I01
aI00
aI00
aI00
aI00
aI00
aI01
aI00
aI01
aI00
aI00
aI00
aI00
aI00
aI00
aI01
aa(lp105
I01
aI00
aI01
aI01
aI01
aI01
aI01
aI01
aI01
aI01
aI01
aI01
aI01
aI01
aI01
aI01
aa(lp106
I01
aI00
aI00
aI00
aI00
aI00
aI00
aI00
aI00
aI00
aI00
aI00
aI00
aI00
aI00
aI01
aa(lp107
I01
aI01
aI01
aI01
aI01
aI01
aI01
aI01
aI01
aI01
aI01
aI01
aI01
aI01
aI01
aI01
aasg61
I16
sbsS'layoutText'
p108
(lp109
S'%%%%%%%%%%%%%%%%%%%%%%%%%%%%%%%%'
p110
aS'%   %. %.%.%       %     %.%.%4%'
p111
aS'% % %%       %%  %   %%%   %.%2%'
p112
aS'% % %. % %%%    %%%% .%..% % % %'
p113
aS'% % %% % ..% %   %   %%%%% % % %'
p114
aS'% %    %%%%% %%%   %%%.% o % % %'
p115
aS'% %% % ..%.  %.%%%       %   % %'
p116
aS'% %. %%.%%%%        %.%%%%  %% %'
p117
aS'% %%  %%%%.%        %%%%.%% .% %'
p118
aS'% %   %       %%%.%  .%.. % %% %'
p119
aS'% % % o %.%%%   %%% %%%%%    % %'
p120
aS'% % % %%%%%   %   % %.. % %% % %'
p121
aS'% % % %..%. %%%%    %%% % .% % %'
p122
aS'%1%.%   %%%   %  %%       %% % %'
p123
aS'%3%.%.%     %       %.%.% .%   %'
p124
aS'%%%%%%%%%%%%%%%%%%%%%%%%%%%%%%%%'
p125
asbsS'actions'
p126
(lp127
(I0
S'North'
p128
tp129
a(I1
S'South'
p130
tp131
a(I2
g128
tp132
a(I3
g130
tp133
a(I0
g128
tp134
a(I1
g130
tp135
a(I2
g128
tp136
a(I3
g130
tp137
a(I0
g128
tp138
a(I1
g130
tp139
a(I2
g128
tp140
a(I3
g130
tp141
a(I0
g128
tp142
a(I1
g130
tp143
a(I2
g128
tp144
a(I3
g130
tp145
a(I0
g128
tp146
a(I1
g130
tp147
a(I2
g128
tp148
a(I3
g130
tp149
a(I0
g128
tp150
a(I1
g130
tp151
a(I2
g128
tp152
a(I3
g130
tp153
a(I0
g128
tp154
a(I1
g130
tp155
a(I2
g128
tp156
a(I3
g130
tp157
a(I0
g128
tp158
a(I1
g130
tp159
a(I2
g128
tp160
a(I3
g130
tp161
a(I0
g128
tp162
a(I1
g130
tp163
a(I2
g128
tp164
a(I3
g130
tp165
a(I0
g128
tp166
a(I1
g130
tp167
a(I2
g128
tp168
a(I3
g130
tp169
a(I0
g128
tp170
a(I1
g130
tp171
a(I2
g128
tp172
a(I3
g130
tp173
a(I0
g128
tp174
a(I1
g130
tp175
a(I2
g128
tp176
a(I3
g130
tp177
a(I0
S'East'
p178
tp179
a(I1
S'West'
p180
tp181
a(I2
g128
tp182
a(I3
g130
tp183
a(I0
g178
tp184
a(I1
g180
tp185
a(I2
g178
tp186
a(I3
g180
tp187
a(I0
g130
tp188
a(I1
g128
tp189
a(I2
g178
tp190
a(I3
g180
tp191
a(I0
g130
tp192
a(I1
g128
tp193
a(I2
g130
tp194
a(I3
g128
tp195
a(I0
g130
tp196
a(I1
g128
tp197
a(I2
g130
tp198
a(I3
g128
tp199
a(I0
g130
tp200
a(I1
g128
tp201
a(I2
g130
tp202
a(I3
g128
tp203
a(I0
g178
tp204
a(I1
g180
tp205
a(I2
g130
tp206
a(I3
g128
tp207
a(I0
g178
tp208
a(I1
g128
tp209
a(I2
g178
tp210
a(I3
g180
tp211
a(I0
g178
tp212
a(I1
g128
tp213
a(I2
g130
tp214
a(I3
g128
tp215
a(I0
g128
tp216
a(I1
g128
tp217
a(I2
g130
tp218
a(I3
g128
tp219
a(I0
g128
tp220
a(I1
g180
tp221
a(I2
g130
tp222
a(I3
g128
tp223
a(I0
g128
tp224
a(I1
g128
tp225
a(I2
g130
tp226
a(I3
g128
tp227
a(I0
g178
tp228
a(I1
g128
tp229
a(I2
g178
tp230
a(I3
g180
tp231
a(I0
g178
tp232
a(I1
g180
tp233
a(I2
g130
tp234
a(I3
g128
tp235
a(I0
g178
tp236
a(I1
g180
tp237
a(I2
g178
tp238
a(I3
g180
tp239
a(I0
g178
tp240
a(I1
g130
tp241
a(I2
g178
tp242
a(I3
g180
tp243
a(I0
g178
tp244
a(I1
g180
tp245
a(I2
g128
tp246
a(I3
g130
tp247
a(I0
g178
tp248
a(I1
g180
tp249
a(I2
g178
tp250
a(I3
g180
tp251
a(I0
g130
tp252
a(I1
g180
tp253
a(I2
g178
tp254
a(I3
g180
tp255
a(I0
g130
tp256
a(I1
g180
tp257
a(I2
g178
tp258
a(I3
g180
tp259
a(I0
g130
tp260
a(I1
g180
tp261
a(I2
g178
tp262
a(I3
g180
tp263
a(I0
g130
tp264
a(I1
g180
tp265
a(I2
g178
tp266
a(I3
g180
tp267
a(I0
g130
tp268
a(I1
g130
tp269
a(I2
g178
tp270
a(I3
g180
tp271
a(I0
g178
tp272
a(I1
g180
tp273
a(I2
g128
tp274
a(I3
g130
tp275
a(I0
g130
tp276
a(I1
g180
tp277
a(I2
g128
tp278
a(I3
g180
tp279
a(I0
g130
tp280
a(I1
g180
tp281
a(I2
g178
tp282
a(I3
g180
tp283
a(I0
g128
tp284
a(I1
S'Stop'
p285
tp286
a(I2
g178
tp287
a(I3
g285
tp288
a(I0
g180
tp289
a(I1
g130
tp290
a(I2
g285
tp291
a(I3
g285
tp292
a(I0
g178
tp293
a(I1
g130
tp294
a(I2
g285
tp295
a(I3
g285
tp296
a(I0
g130
tp297
a(I1
g130
tp298
a(I2
g285
tp299
a(I3
g285
tp300
a(I0
g130
tp301
a(I1
g130
tp302
a(I2
g285
tp303
a(I3
g285
tp304
a(I0
g178
tp305
a(I1
g130
tp306
a(I2
g285
tp307
a(I3
g285
tp308
a(I0
g178
tp309
a(I1
g130
tp310
a(I2
g285
tp311
a(I3
g285
tp312
a(I0
g130
tp313
a(I1
g130
tp314
a(I2
g285
tp315
a(I3
g285
tp316
a(I0
g178
tp317
a(I1
g130
tp318
a(I2
g285
tp319
a(I3
g285
tp320
a(I0
g130
tp321
a(I1
g130
tp322
a(I2
g285
tp323
a(I3
g285
tp324
a(I0
g178
tp325
a(I1
g130
tp326
a(I2
g285
tp327
a(I3
g285
tp328
a(I0
g178
tp329
a(I1
g130
tp330
a(I2
g285
tp331
a(I3
g285
tp332
a(I0
g178
tp333
a(I1
g130
tp334
a(I2
g285
tp335
a(I3
g285
tp336
a(I0
g130
tp337
a(I1
g180
tp338
a(I2
g285
tp339
a(I3
g285
tp340
a(I0
g178
tp341
a(I1
g180
tp342
a(I2
g285
tp343
a(I3
g285
tp344
a(I0
g178
tp345
a(I1
g128
tp346
a(I2
g285
tp347
a(I3
g285
tp348
a(I0
g130
tp349
a(I1
g128
tp350
a(I2
g285
tp351
a(I3
g285
tp352
a(I0
g128
tp353
a(I1
g128
tp354
a(I2
g285
tp355
a(I3
g285
tp356
a(I0
g178
tp357
a(I1
g128
tp358
a(I2
g285
tp359
a(I3
g285
tp360
a(I0
g178
tp361
a(I1
g180
tp362
a(I2
g285
tp363
a(I3
g285
tp364
a(I0
g130
tp365
a(I1
g180
tp366
a(I2
g285
tp367
a(I3
g285
tp368
a(I0
g128
tp369
a(I1
g180
tp370
a(I2
g285
tp371
a(I3
g285
tp372
a(I0
g128
tp373
a(I1
g130
tp374
a(I2
g285
tp375
a(I3
g285
tp376
a(I0
g128
tp377
a(I1
g130
tp378
a(I2
g285
tp379
a(I3
g285
tp380
a(I0
g180
tp381
a(I1
g130
tp382
a(I2
g285
tp383
a(I3
g285
tp384
a(I0
g180
tp385
a(I1
g180
tp386
a(I2
g285
tp387
a(I3
g285
tp388
a(I0
g178
tp389
a(I1
g180
tp390
a(I2
g285
tp391
a(I3
g285
tp392
a(I0
g178
tp393
a(I1
g128
tp394
a(I2
g285
tp395
a(I3
g285
tp396
a(I0
g130
tp397
a(I1
g130
tp398
a(I2
g285
tp399
a(I3
g285
tp400
a(I0
g128
tp401
a(I1
g180
tp402
a(I2
g285
tp403
a(I3
g285
tp404
a(I0
g128
tp405
a(I1
g180
tp406
a(I2
g285
tp407
a(I3
g285
tp408
a(I0
g128
tp409
a(I1
g180
tp410
a(I2
g285
tp411
a(I3
g285
tp412
a(I0
g128
tp413
a(I1
g180
tp414
a(I2
g285
tp415
a(I3
g285
tp416
a(I0
g128
tp417
a(I1
g130
tp418
a(I2
g285
tp419
a(I3
g285
tp420
a(I0
g128
tp421
a(I1
g180
tp422
a(I2
g285
tp423
a(I3
g285
tp424
a(I0
g128
tp425
a(I1
g180
tp426
a(I2
g285
tp427
a(I3
g285
tp428
a(I0
g128
tp429
a(I1
g180
tp430
a(I2
g285
tp431
a(I3
g285
tp432
a(I0
g128
tp433
a(I1
g180
tp434
a(I2
g180
tp435
a(I3
g178
tp436
a(I0
g128
tp437
a(I1
g180
tp438
a(I2
g180
tp439
a(I3
g180
tp440
a(I0
g128
tp441
a(I1
g180
tp442
a(I2
g130
tp443
a(I3
g130
tp444
a(I0
g128
tp445
a(I1
g128
tp446
a(I2
g130
tp447
a(I3
g128
tp448
a(I0
g178
tp449
a(I1
g180
tp450
a(I2
g130
tp451
a(I3
g130
tp452
a(I0
g178
tp453
a(I1
g180
tp454
a(I2
g130
tp455
a(I3
g128
tp456
a(I0
g130
tp457
a(I1
g130
tp458
a(I2
g180
tp459
a(I3
g130
tp460
a(I0
g130
tp461
a(I1
g180
tp462
a(I2
g180
tp463
a(I3
g285
tp464
a(I0
g130
tp465
a(I1
g180
tp466
a(I2
g130
tp467
a(I3
g178
tp468
a(I0
g130
tp469
a(I1
g180
tp470
a(I2
g130
tp471
a(I3
g180
tp472
a(I0
g178
tp473
a(I1
g180
tp474
a(I2
g130
tp475
a(I3
g128
tp476
a(I0
g130
tp477
a(I1
g128
tp478
a(I2
g180
tp479
a(I3
g130
tp480
a(I0
g130
tp481
a(I1
g128
tp482
a(I2
g180
tp483
a(I3
g128
tp484
a(I0
g130
tp485
a(I1
g178
tp486
a(I2
g180
tp487
a(I3
g130
tp488
a(I0
g178
tp489
a(I1
g180
tp490
a(I2
g180
tp491
a(I3
g285
tp492
a(I0
g130
tp493
a(I1
g130
tp494
a(I2
g128
tp495
a(I3
g285
tp496
a(I0
g130
tp497
a(I1
g130
tp498
a(I2
g130
tp499
a(I3
g178
tp500
a(I0
g130
tp501
a(I1
g130
tp502
a(I2
g178
tp503
a(I3
g180
tp504
a(I0
g130
tp505
a(I1
g130
tp506
a(I2
g178
tp507
a(I3
g285
tp508
a(I0
g130
tp509
a(I1
g130
tp510
a(I2
g178
tp511
a(I3
g178
tp512
a(I0
g178
tp513
a(I1
g130
tp514
a(I2
g178
tp515
a(I3
g180
tp516
a(I0
g178
tp517
a(I1
g130
tp518
a(I2
g128
tp519
a(I3
g128
tp520
a(I0
g130
tp521
a(I1
g130
tp522
a(I2
g128
tp523
a(I3
g130
tp524
a(I0
g178
tp525
a(I1
g130
tp526
a(I2
g128
tp527
a(I3
g178
tp528
a(I0
g178
tp529
a(I1
g130
tp530
a(I2
g178
tp531
a(I3
g180
tp532
a(I0
g178
tp533
a(I1
g130
tp534
a(I2
g178
tp535
a(I3
g178
tp536
a(I0
g178
tp537
a(I1
g130
tp538
a(I2
g128
tp539
a(I3
g180
tp540
a(I0
g128
tp541
a(I1
g130
tp542
a(I2
g128
tp543
a(I3
g285
tp544
a(I0
g178
tp545
a(I1
g180
tp546
a(I2
g128
tp547
a(I3
g178
tp548
a(I0
g178
tp549
a(I1
g180
tp550
a(I2
g178
tp551
a(I3
g180
tp552
a(I0
g130
tp553
a(I1
g128
tp554
a(I2
g178
tp555
a(I3
g285
tp556
a(I0
g178
tp557
a(I1
g128
tp558
a(I2
g285
tp559
a(I3
g285
tp560
a(I0
g178
tp561
a(I1
g128
tp562
a(I2
g285
tp563
a(I3
g285
tp564
a(I0
g178
tp565
a(I1
g128
tp566
a(I2
g285
tp567
a(I3
g285
tp568
a(I0
g128
tp569
a(I1
g180
tp570
a(I2
g285
tp571
a(I3
g285
tp572
a(I0
g128
tp573
a(I1
g180
tp574
a(I2
g285
tp575
a(I3
g285
tp576
a(I0
g178
tp577
a(I1
g180
tp578
a(I2
g285
tp579
a(I3
g285
tp580
a(I0
g178
tp581
a(I1
g130
tp582
a(I2
g285
tp583
a(I3
g285
tp584
a(I0
g178
tp585
a(I1
g130
tp586
a(I2
g285
tp587
a(I3
g285
tp588
a(I0
g128
tp589
a(I1
g130
tp590
a(I2
g285
tp591
a(I3
g285
tp592
a(I0
g128
tp593
a(I1
g180
tp594
a(I2
g285
tp595
a(I3
g285
tp596
a(I0
g128
tp597
a(I1
g180
tp598
a(I2
g285
tp599
a(I3
g285
tp600
a(I0
g178
tp601
a(I1
g180
tp602
a(I2
g285
tp603
a(I3
g285
tp604
a(I0
g178
tp605
a(I1
g180
tp606
a(I2
g285
tp607
a(I3
g285
tp608
a(I0
g180
tp609
a(I1
g180
tp610
a(I2
g285
tp611
a(I3
g285
tp612
a(I0
g180
tp613
a(I1
g180
tp614
a(I2
g285
tp615
a(I3
g285
tp616
a(I0
g128
tp617
a(I1
g130
tp618
a(I2
g285
tp619
a(I3
g285
tp620
a(I0
g285
tp621
a(I1
g180
tp622
a(I2
g285
tp623
a(I3
g285
tp624
a(I0
g285
tp625
a(I1
g180
tp626
a(I2
g285
tp627
a(I3
g285
tp628
a(I0
g285
tp629
a(I1
g180
tp630
a(I2
g180
tp631
a(I3
g178
tp632
a(I0
g130
tp633
a(I1
g180
tp634
a(I2
g180
tp635
a(I3
g178
tp636
a(I0
g130
tp637
a(I1
g180
tp638
a(I2
g130
tp639
a(I3
g178
tp640
a(I0
g130
tp641
a(I1
g180
tp642
a(I2
g130
tp643
a(I3
g130
tp644
a(I0
g130
tp645
a(I1
g128
tp646
a(I2
g130
tp647
a(I3
g130
tp648
a(I0
g180
tp649
a(I1
g180
tp650
a(I2
g180
tp651
a(I3
g130
tp652
a(I0
g180
tp653
a(I1
g180
tp654
a(I2
g180
tp655
a(I3
g130
tp656
a(I0
g128
tp657
a(I1
g130
tp658
a(I2
g130
tp659
a(I3
g180
tp660
a(I0
g180
tp661
a(I1
g180
tp662
a(I2
g130
tp663
a(I3
g180
tp664
a(I0
g285
tp665
a(I1
g180
tp666
a(I2
g130
tp667
a(I3
g128
tp668
a(I0
g130
tp669
a(I1
g180
tp670
a(I2
g180
tp671
a(I3
g130
tp672
a(I0
g130
tp673
a(I1
g180
tp674
a(I2
g180
tp675
a(I3
g180
tp676
a(I0
g130
tp677
a(I1
g128
tp678
a(I2
g180
tp679
a(I3
g130
tp680
a(I0
g178
tp681
a(I1
g180
tp682
a(I2
g180
tp683
a(I3
g130
tp684
a(I0
g178
tp685
a(I1
g180
tp686
a(I2
g128
tp687
a(I3
g178
tp688
a(I0
g178
tp689
a(I1
g130
tp690
a(I2
g180
tp691
a(I3
g178
tp692
a(I0
g128
tp693
a(I1
g128
tp694
a(I2
g180
tp695
a(I3
g178
tp696
a(I0
g128
tp697
a(I1
g130
tp698
a(I2
g178
tp699
a(I3
g128
tp700
a(I0
g128
tp701
a(I1
g130
tp702
a(I2
g178
tp703
a(I3
g128
tp704
a(I0
g128
tp705
a(I1
g130
tp706
a(I2
g130
tp707
a(I3
g128
tp708
a(I0
g128
tp709
a(I1
g130
tp710
a(I2
g178
tp711
a(I3
g128
tp712
a(I0
g128
tp713
a(I1
g130
tp714
a(I2
g178
tp715
a(I3
g128
tp716
a(I0
g180
tp717
a(I1
g130
tp718
a(I2
g178
tp719
a(I3
g128
tp720
a(I0
g180
tp721
a(I1
g130
tp722
a(I2
g178
tp723
a(I3
g180
tp724
a(I0
g180
tp725
a(I1
g130
tp726
a(I2
g128
tp727
a(I3
g180
tp728
a(I0
g128
tp729
a(I1
g130
tp730
a(I2
g128
tp731
a(I3
g180
tp732
a(I0
g178
tp733
a(I1
g130
tp734
a(I2
g128
tp735
a(I3
g128
tp736
a(I0
g130
tp737
a(I1
g130
tp738
a(I2
g178
tp739
a(I3
g178
tp740
a(I0
g180
tp741
a(I1
g130
tp742
a(I2
g178
tp743
a(I3
g130
tp744
a(I0
g128
tp745
a(I1
g180
tp746
a(I2
g128
tp747
a(I3
g128
tp748
a(I0
g130
tp749
a(I1
g180
tp750
a(I2
g128
tp751
a(I3
g130
tp752
a(I0
g128
tp753
a(I1
g128
tp754
a(I2
g128
tp755
a(I3
g180
tp756
a(I0
g178
tp757
a(I1
g128
tp758
a(I2
g178
tp759
a(I3
g128
tp760
a(I0
g130
tp761
a(I1
g128
tp762
a(I2
g128
tp763
a(I3
g178
tp764
a(I0
g180
tp765
a(I1
g128
tp766
a(I2
g178
tp767
a(I3
g130
tp768
a(I0
g128
tp769
a(I1
g180
tp770
a(I2
g130
tp771
a(I3
g180
tp772
a(I0
g178
tp773
a(I1
g180
tp774
a(I2
g285
tp775
a(I3
g285
tp776
a(I0
g178
tp777
a(I1
g180
tp778
a(I2
g285
tp779
a(I3
g285
tp780
a(I0
g285
tp781
a(I1
g130
tp782
a(I2
g285
tp783
a(I3
g285
tp784
a(I0
g285
tp785
a(I1
g130
tp786
a(I2
g285
tp787
a(I3
g285
tp788
a(I0
g285
tp789
a(I1
g130
tp790
a(I2
g285
tp791
a(I3
g285
tp792
a(I0
g285
tp793
a(I1
g180
tp794
a(I2
g285
tp795
a(I3
g285
tp796
a(I0
g285
tp797
a(I1
g180
tp798
a(I2
g285
tp799
a(I3
g285
tp800
a(I0
g285
tp801
a(I1
g180
tp802
a(I2
g285
tp803
a(I3
g285
tp804
a(I0
g285
tp805
a(I1
g180
tp806
a(I2
g285
tp807
a(I3
g285
tp808
a(I0
g285
tp809
a(I1
g180
tp810
a(I2
g285
tp811
a(I3
g285
tp812
a(I0
g285
tp813
a(I1
g180
tp814
a(I2
g285
tp815
a(I3
g285
tp816
a(I0
g285
tp817
a(I1
g130
tp818
a(I2
g285
tp819
a(I3
g285
tp820
a(I0
g285
tp821
a(I1
g180
tp822
a(I2
g285
tp823
a(I3
g285
tp824
a(I0
g285
tp825
a(I1
g180
tp826
a(I2
g285
tp827
a(I3
g285
tp828
a(I0
g285
tp829
a(I1
g180
tp830
a(I2
g285
tp831
a(I3
g285
tp832
a(I0
g285
tp833
a(I1
g180
tp834
a(I2
g180
tp835
a(I3
g178
tp836
a(I0
g178
tp837
a(I1
g180
tp838
a(I2
g180
tp839
a(I3
g128
tp840
a(I0
g128
tp841
a(I1
g180
tp842
a(I2
g130
tp843
a(I3
g178
tp844
a(I0
g178
tp845
a(I1
g128
tp846
a(I2
g130
tp847
a(I3
g128
tp848
a(I0
g178
tp849
a(I1
g180
tp850
a(I2
g130
tp851
a(I3
g178
tp852
a(I0
g130
tp853
a(I1
g180
tp854
a(I2
g180
tp855
a(I3
g178
tp856
a(I0
g285
tp857
a(I1
g128
tp858
a(I2
g180
tp859
a(I3
g178
tp860
a(I0
g285
tp861
a(I1
g180
tp862
a(I2
g130
tp863
a(I3
g130
tp864
a(I0
g128
tp865
a(I1
g285
tp866
a(I2
g180
tp867
a(I3
g128
tp868
a(I0
g285
tp869
a(I1
g130
tp870
a(I2
g178
tp871
a(I3
g180
tp872
a(I0
g128
tp873
a(I1
g130
tp874
a(I2
g128
tp875
a(I3
g180
tp876
a(I0
g128
tp877
a(I1
g130
tp878
a(I2
g178
tp879
a(I3
g130
tp880
a(I0
g128
tp881
a(I1
g130
tp882
a(I2
g178
tp883
a(I3
g130
tp884
a(I0
g128
tp885
a(I1
g130
tp886
a(I2
g128
tp887
a(I3
g180
tp888
a(I0
g128
tp889
a(I1
g130
tp890
a(I2
g128
tp891
a(I3
g180
tp892
a(I0
g128
tp893
a(I1
g130
tp894
a(I2
g128
tp895
a(I3
g180
tp896
a(I0
g128
tp897
a(I1
g130
tp898
a(I2
g178
tp899
a(I3
g285
tp900
a(I0
g128
tp901
a(I1
g130
tp902
a(I2
g178
tp903
a(I3
g285
tp904
a(I0
g128
tp905
a(I1
g130
tp906
a(I2
g285
tp907
a(I3
g285
tp908
a(I0
g128
tp909
a(I1
g130
tp910
a(I2
g285
tp911
a(I3
g285
tp912
a(I0
g128
tp913
a(I1
g130
tp914
a(I2
g285
tp915
a(I3
g285
tp916
a(I0
g178
tp917
a(I1
g180
tp918
a(I2
g285
tp919
a(I3
g285
tp920
a(I0
g178
tp921
a(I1
g180
tp922
a(I2
g285
tp923
a(I3
g285
tp924
a(I0
g130
tp925
a(I1
g128
tp926
a(I2
g285
tp927
a(I3
g285
tp928
a(I0
g130
tp929
a(I1
g128
tp930
a(I2
g285
tp931
a(I3
g285
tp932
a(I0
g130
tp933
a(I1
g128
tp934
a(I2
g285
tp935
a(I3
g285
tp936
a(I0
g130
tp937
a(I1
g128
tp938
a(I2
g285
tp939
a(I3
g285
tp940
a(I0
g178
tp941
a(I1
g180
tp942
a(I2
g285
tp943
a(I3
g285
tp944
a(I0
g130
tp945
a(I1
g128
tp946
a(I2
g285
tp947
a(I3
g285
tp948
a(I0
g130
tp949
a(I1
g128
tp950
a(I2
g285
tp951
a(I3
g285
tp952
a(I0
g130
tp953
a(I1
g128
tp954
a(I2
g285
tp955
a(I3
g285
tp956
a(I0
g130
tp957
a(I1
g128
tp958
a(I2
g285
tp959
a(I3
g285
tp960
a(I0
g178
tp961
a(I1
g180
tp962
a(I2
g285
tp963
a(I3
g285
tp964
a(I0
g130
tp965
a(I1
g128
tp966
a(I2
g285
tp967
a(I3
g285
tp968
a(I0
g130
tp969
a(I1
g180
tp970
a(I2
g285
tp971
a(I3
g285
tp972
a(I0
g130
tp973
a(I1
g180
tp974
a(I2
g285
tp975
a(I3
g285
tp976
a(I0
g130
tp977
a(I1
g130
tp978
a(I2
g285
tp979
a(I3
g285
tp980
a(I0
g178
tp981
a(I1
g180
tp982
a(I2
g285
tp983
a(I3
g285
tp984
a(I0
g178
tp985
a(I1
g180
tp986
a(I2
g285
tp987
a(I3
g285
tp988
a(I0
g130
tp989
a(I1
g180
tp990
a(I2
g285
tp991
a(I3
g285
tp992
a(I0
g178
tp993
a(I1
g180
tp994
a(I2
g285
tp995
a(I3
g285
tp996
a(I0
g178
tp997
a(I1
g180
tp998
a(I2
g285
tp999
a(I3
g285
tp1000
a(I0
g178
tp1001
a(I1
g180
tp1002
a(I2
g285
tp1003
a(I3
g285
tp1004
a(I0
g178
tp1005
a(I1
g128
tp1006
a(I2
g285
tp1007
a(I3
g285
tp1008
a(I0
g128
tp1009
a(I1
g180
tp1010
a(I2
g285
tp1011
a(I3
g285
tp1012
a(I0
g178
tp1013
a(I1
g180
tp1014
a(I2
g285
tp1015
a(I3
g285
tp1016
a(I0
g178
tp1017
a(I1
g128
tp1018
a(I2
g285
tp1019
a(I3
g285
tp1020
a(I0
g130
tp1021
a(I1
g180
tp1022
a(I2
g128
tp1023
a(I3
g128
tp1024
a(I0
g128
tp1025
a(I1
g180
tp1026
a(I2
g180
tp1027
a(I3
g130
tp1028
a(I0
g180
tp1029
a(I1
g128
tp1030
a(I2
g180
tp1031
a(I3
g128
tp1032
a(I0
g180
tp1033
a(I1
g180
tp1034
a(I2
g180
tp1035
a(I3
g178
tp1036
a(I0
g128
tp1037
a(I1
g180
tp1038
a(I2
g128
tp1039
a(I3
g180
tp1040
a(I0
g128
tp1041
a(I1
g128
tp1042
a(I2
g128
tp1043
a(I3
g285
tp1044
a(I0
g178
tp1045
a(I1
g180
tp1046
a(I2
g128
tp1047
a(I3
g285
tp1048
a(I0
g178
tp1049
a(I1
g180
tp1050
a(I2
g128
tp1051
a(I3
g130
tp1052
a(I0
g128
tp1053
a(I1
g128
tp1054
a(I2
g128
tp1055
a(I3
g285
tp1056
a(I0
g128
tp1057
a(I1
g130
tp1058
a(I2
g180
tp1059
a(I3
g178
tp1060
a(I0
g128
tp1061
a(I1
g180
tp1062
a(I2
g180
tp1063
a(I3
g180
tp1064
a(I0
g180
tp1065
a(I1
g180
tp1066
a(I2
g180
tp1067
a(I3
g178
tp1068
a(I0
g128
tp1069
a(I1
g128
tp1070
a(I2
g180
tp1071
a(I3
g128
tp1072
a(I0
g128
tp1073
a(I1
g285
tp1074
a(I2
g128
tp1075
a(I3
g180
tp1076
a(I0
g180
tp1077
a(I1
g130
tp1078
a(I2
g130
tp1079
a(I3
g130
tp1080
a(I0
g178
tp1081
a(I1
g130
tp1082
a(I2
g178
tp1083
a(I3
g128
tp1084
a(I0
g130
tp1085
a(I1
g130
tp1086
a(I2
g178
tp1087
a(I3
g178
tp1088
a(I0
g130
tp1089
a(I1
g130
tp1090
a(I2
g178
tp1091
a(I3
g180
tp1092
a(I0
g178
tp1093
a(I1
g130
tp1094
a(I2
g178
tp1095
a(I3
g130
tp1096
a(I0
g130
tp1097
a(I1
g130
tp1098
a(I2
g130
tp1099
a(I3
g178
tp1100
a(I0
g130
tp1101
a(I1
g130
tp1102
a(I2
g130
tp1103
a(I3
g180
tp1104
a(I0
g178
tp1105
a(I1
g130
tp1106
a(I2
g130
tp1107
a(I3
g285
tp1108
a(I0
g178
tp1109
a(I1
g130
tp1110
a(I2
g130
tp1111
a(I3
g285
tp1112
a(I0
g130
tp1113
a(I1
g130
tp1114
a(I2
g130
tp1115
a(I3
g128
tp1116
a(I0
g178
tp1117
a(I1
g130
tp1118
a(I2
g178
tp1119
a(I3
g178
tp1120
a(I0
g130
tp1121
a(I1
g130
tp1122
a(I2
g178
tp1123
a(I3
g180
tp1124
a(I0
g178
tp1125
a(I1
g180
tp1126
a(I2
g178
tp1127
a(I3
g285
tp1128
a(I0
g178
tp1129
a(I1
g180
tp1130
a(I2
g285
tp1131
a(I3
g285
tp1132
a(I0
g178
tp1133
a(I1
g128
tp1134
a(I2
g285
tp1135
a(I3
g285
tp1136
a(I0
g128
tp1137
a(I1
g128
tp1138
a(I2
g285
tp1139
a(I3
g285
tp1140
a(I0
g128
tp1141
a(I1
g128
tp1142
a(I2
g285
tp1143
a(I3
g285
tp1144
a(I0
g128
tp1145
a(I1
g128
tp1146
a(I2
g285
tp1147
a(I3
g285
tp1148
a(I0
g128
tp1149
a(I1
g180
tp1150
a(I2
g285
tp1151
a(I3
g285
tp1152
a(I0
g180
tp1153
a(I1
g180
tp1154
a(I2
g285
tp1155
a(I3
g285
tp1156
a(I0
g285
tp1157
a(I1
g180
tp1158
a(I2
g285
tp1159
a(I3
g285
tp1160
a(I0
g285
tp1161
a(I1
g130
tp1162
a(I2
g285
tp1163
a(I3
g285
tp1164
a(I0
g285
tp1165
a(I1
g130
tp1166
a(I2
g285
tp1167
a(I3
g285
tp1168
a(I0
g285
tp1169
a(I1
g130
tp1170
a(I2
g285
tp1171
a(I3
g285
tp1172
a(I0
g285
tp1173
a(I1
g180
tp1174
a(I2
g285
tp1175
a(I3
g285
tp1176
a(I0
g285
tp1177
a(I1
g180
tp1178
a(I2
g285
tp1179
a(I3
g285
tp1180
a(I0
g285
tp1181
a(I1
g180
tp1182
a(I2
g285
tp1183
a(I3
g285
tp1184
a(I0
g285
tp1185
a(I1
g180
tp1186
a(I2
g285
tp1187
a(I3
g285
tp1188
a(I0
g285
tp1189
a(I1
g180
tp1190
a(I2
g285
tp1191
a(I3
g285
tp1192
a(I0
g285
tp1193
a(I1
g180
tp1194
a(I2
g285
tp1195
a(I3
g285
tp1196
a(I0
g285
tp1197
a(I1
g128
tp1198
a(I2
g285
tp1199
a(I3
g285
tp1200
a(I0
g180
tp1201
a(I1
g180
tp1202
a(I2
g285
tp1203
a(I3
g285
tp1204
a(I0
g285
tp1205
a(I1
g180
tp1206
a(I2
g285
tp1207
a(I3
g285
tp1208
a(I0
g178
tp1209
a(I1
g180
tp1210
a(I2
g285
tp1211
a(I3
g285
tp1212
a(I0
g285
tp1213
a(I1
g128
tp1214
a(I2
g130
tp1215
a(I3
g130
tp1216
a(I0
g128
tp1217
a(I1
g180
tp1218
a(I2
g180
tp1219
a(I3
g285
tp1220
a(I0
g285
tp1221
a(I1
g128
tp1222
a(I2
g180
tp1223
a(I3
g178
tp1224
a(I0
g178
tp1225
a(I1
g180
tp1226
a(I2
g130
tp1227
a(I3
g128
tp1228
a(I0
g130
tp1229
a(I1
g180
tp1230
a(I2
g130
tp1231
a(I3
g178
tp1232
a(I0
g130
tp1233
a(I1
g130
tp1234
a(I2
g128
tp1235
a(I3
g178
tp1236
a(I0
g130
tp1237
a(I1
g130
tp1238
a(I2
g128
tp1239
a(I3
g130
tp1240
a(I0
g130
tp1241
a(I1
g130
tp1242
a(I2
g178
tp1243
a(I3
g130
tp1244
a(I0
g130
tp1245
a(I1
g130
tp1246
a(I2
g178
tp1247
a(I3
g130
tp1248
a(I0
g180
tp1249
a(I1
g130
tp1250
a(I2
g285
tp1251
a(I3
g130
tp1252
a(I0
g180
tp1253
a(I1
g130
tp1254
a(I2
g180
tp1255
a(I3
g130
tp1256
a(I0
g180
tp1257
a(I1
g130
tp1258
a(I2
g180
tp1259
a(I3
g180
tp1260
a(I0
g130
tp1261
a(I1
g130
tp1262
a(I2
g130
tp1263
a(I3
g180
tp1264
a(I0
g285
tp1265
a(I1
g130
tp1266
a(I2
g130
tp1267
a(I3
g180
tp1268
a(I0
g130
tp1269
a(I1
g130
tp1270
a(I2
g130
tp1271
a(I3
g130
tp1272
a(I0
g178
tp1273
a(I1
g130
tp1274
a(I2
g180
tp1275
a(I3
g130
tp1276
a(I0
g178
tp1277
a(I1
g130
tp1278
a(I2
g180
tp1279
a(I3
g178
tp1280
a(I0
g178
tp1281
a(I1
g180
tp1282
a(I2
g130
tp1283
a(I3
g178
tp1284
a(I0
g128
tp1285
a(I1
g180
tp1286
a(I2
g130
tp1287
a(I3
g178
tp1288
a(I0
g178
tp1289
a(I1
g128
tp1290
a(I2
g178
tp1291
a(I3
g128
tp1292
a(I0
g178
tp1293
a(I1
g128
tp1294
a(I2
g178
tp1295
a(I3
g178
tp1296
a(I0
g178
tp1297
a(I1
g128
tp1298
a(I2
g130
tp1299
a(I3
g178
tp1300
a(I0
g178
tp1301
a(I1
g128
tp1302
a(I2
g178
tp1303
a(I3
g178
tp1304
a(I0
g178
tp1305
a(I1
g180
tp1306
a(I2
g178
tp1307
a(I3
g178
tp1308
a(I0
g178
tp1309
a(I1
g128
tp1310
a(I2
g285
tp1311
a(I3
g178
tp1312
a(I0
g128
tp1313
a(I1
g128
tp1314
a(I2
g285
tp1315
a(I3
g178
tp1316
a(I0
g128
tp1317
a(I1
g128
tp1318
a(I2
g285
tp1319
a(I3
g128
tp1320
a(I0
g128
tp1321
a(I1
g180
tp1322
a(I2
g285
tp1323
a(I3
g128
tp1324
a(I0
g178
tp1325
a(I1
g128
tp1326
a(I2
g285
tp1327
a(I3
g128
tp1328
a(I0
g178
tp1329
a(I1
g128
tp1330
a(I2
g285
tp1331
a(I3
g178
tp1332
a(I0
g128
tp1333
a(I1
g180
tp1334
a(I2
g180
tp1335
a(I3
g178
tp1336
a(I0
g128
tp1337
a(I1
g180
tp1338
a(I2
g180
tp1339
a(I3
g128
tp1340
a(I0
g128
tp1341
a(I1
g130
tp1342
a(I2
g128
tp1343
a(I3
g128
tp1344
a(I0
g180
tp1345
a(I1
g180
tp1346
a(I2
g180
tp1347
a(I3
g128
tp1348
a(I0
g128
tp1349
a(I1
g180
tp1350
a(I2
g180
tp1351
a(I3
g180
tp1352
a(I0
g178
tp1353
a(I1
g180
tp1354
a(I2
g128
tp1355
a(I3
g178
tp1356
a(I0
g180
tp1357
a(I1
g180
tp1358
a(I2
g128
tp1359
a(I3
g180
tp1360
a(I0
g178
tp1361
a(I1
g180
tp1362
a(I2
g178
tp1363
a(I3
g178
tp1364
a(I0
g180
tp1365
a(I1
g130
tp1366
a(I2
g178
tp1367
a(I3
g128
tp1368
a(I0
g128
tp1369
a(I1
g180
tp1370
a(I2
g128
tp1371
a(I3
g180
tp1372
a(I0
g180
tp1373
a(I1
g180
tp1374
a(I2
g128
tp1375
a(I3
g128
tp1376
a(I0
g180
tp1377
a(I1
g180
tp1378
a(I2
g128
tp1379
a(I3
g180
tp1380
a(I0
g130
tp1381
a(I1
g180
tp1382
a(I2
g128
tp1383
a(I3
g180
tp1384
a(I0
g180
tp1385
a(I1
g180
tp1386
a(I2
g178
tp1387
a(I3
g130
tp1388
a(I0
g180
tp1389
a(I1
g130
tp1390
a(I2
g178
tp1391
a(I3
g180
tp1392
a(I0
g128
tp1393
a(I1
g130
tp1394
a(I2
g285
tp1395
a(I3
g180
tp1396
a(I0
g130
tp1397
a(I1
g130
tp1398
a(I2
g180
tp1399
a(I3
g130
tp1400
a(I0
g180
tp1401
a(I1
g130
tp1402
a(I2
g130
tp1403
a(I3
g130
tp1404
a(I0
g180
tp1405
a(I1
g130
tp1406
a(I2
g180
tp1407
a(I3
g130
tp1408
a(I0
g180
tp1409
a(I1
g130
tp1410
a(I2
g130
tp1411
a(I3
g130
tp1412
a(I0
g180
tp1413
a(I1
g130
tp1414
a(I2
g130
tp1415
a(I3
g130
tp1416
a(I0
g130
tp1417
a(I1
g130
tp1418
a(I2
g130
tp1419
a(I3
g130
tp1420
a(I0
g180
tp1421
a(I1
g130
tp1422
a(I2
g180
tp1423
a(I3
g130
tp1424
a(I0
g130
tp1425
a(I1
g130
tp1426
a(I2
g180
tp1427
a(I3
g130
tp1428
a(I0
g130
tp1429
a(I1
g130
tp1430
a(I2
g130
tp1431
a(I3
g130
tp1432
a(I0
g128
tp1433
a(I1
g130
tp1434
a(I2
g130
tp1435
a(I3
g130
tp1436
a(I0
g128
tp1437
a(I1
g180
tp1438
a(I2
g178
tp1439
a(I3
g130
tp1440
a(I0
g178
tp1441
a(I1
g180
tp1442
a(I2
g178
tp1443
a(I3
g130
tp1444
a(I0
g128
tp1445
a(I1
g128
tp1446
a(I2
g130
tp1447
a(I3
g130
tp1448
a(I0
g128
tp1449
a(I1
g128
tp1450
a(I2
g178
tp1451
a(I3
g180
tp1452
a(I0
g128
tp1453
a(I1
g128
tp1454
a(I2
g178
tp1455
a(I3
g180
tp1456
a(I0
g178
tp1457
a(I1
g128
tp1458
a(I2
g285
tp1459
a(I3
g128
tp1460
a(I0
g178
tp1461
a(I1
g180
tp1462
a(I2
g285
tp1463
a(I3
g128
tp1464
a(I0
g128
tp1465
a(I1
g128
tp1466
a(I2
g285
tp1467
a(I3
g128
tp1468
a(I0
g178
tp1469
a(I1
g128
tp1470
a(I2
g285
tp1471
a(I3
g128
tp1472
a(I0
g180
tp1473
a(I1
g128
tp1474
a(I2
g285
tp1475
a(I3
g180
tp1476
a(I0
g128
tp1477
a(I1
g128
tp1478
a(I2
g285
tp1479
a(I3
g180
tp1480
a(I0
g128
tp1481
a(I1
g180
tp1482
a(I2
g285
tp1483
a(I3
g180
tp1484
a(I0
g178
tp1485
a(I1
g128
tp1486
a(I2
g180
tp1487
a(I3
g130
tp1488
a(I0
g178
tp1489
a(I1
g180
tp1490
a(I2
g178
tp1491
a(I3
g130
tp1492
a(I0
g178
tp1493
a(I1
g180
tp1494
a(I2
g180
tp1495
a(I3
g130
tp1496
a(I0
g178
tp1497
a(I1
g178
tp1498
a(I2
g180
tp1499
a(I3
g180
tp1500
a(I0
g130
tp1501
a(I1
g178
tp1502
a(I2
g178
tp1503
a(I3
g180
tp1504
a(I0
g130
tp1505
a(I1
g128
tp1506
a(I2
g178
tp1507
a(I3
g180
tp1508
a(I0
g180
tp1509
a(I1
g128
tp1510
a(I2
g285
tp1511
a(I3
g180
tp1512
a(I0
g178
tp1513
a(I1
g128
tp1514
a(I2
g285
tp1515
a(I3
g180
tp1516
a(I0
g128
tp1517
a(I1
g180
tp1518
a(I2
g285
tp1519
a(I3
g180
tp1520
a(I0
g128
tp1521
a(I1
g180
tp1522
a(I2
g285
tp1523
a(I3
g130
tp1524
a(I0
g180
tp1525
a(I1
g128
tp1526
a(I2
g285
tp1527
a(I3
g180
tp1528
a(I0
g180
tp1529
a(I1
g180
tp1530
a(I2
g285
tp1531
a(I3
g180
tp1532
a(I0
g180
tp1533
a(I1
g180
tp1534
a(I2
g285
tp1535
a(I3
g180
tp1536
a(I0
g180
tp1537
a(I1
g180
tp1538
a(I2
g285
tp1539
a(I3
g285
tp1540
a(I0
g130
tp1541
a(I1
g180
tp1542
a(I2
g285
tp1543
a(I3
g285
tp1544
a(I0
g180
tp1545
a(I1
g130
tp1546
a(I2
g285
tp1547
a(I3
g285
tp1548
a(I0
g180
tp1549
a(I1
g180
tp1550
a(I2
g285
tp1551
a(I3
g285
tp1552
a(I0
g128
tp1553
a(I1
g180
tp1554
a(I2
g285
tp1555
a(I3
g285
tp1556
a(I0
g180
tp1557
a(I1
g128
tp1558
a(I2
g285
tp1559
a(I3
g285
tp1560
a(I0
g180
tp1561
a(I1
g180
tp1562
a(I2
g285
tp1563
a(I3
g285
tp1564
a(I0
g130
tp1565
a(I1
g180
tp1566
a(I2
g285
tp1567
a(I3
g285
tp1568
a(I0
g180
tp1569
a(I1
g180
tp1570
a(I2
g180
tp1571
a(I3
g128
tp1572
a(I0
g128
tp1573
a(I1
g130
tp1574
a(I2
g178
tp1575
a(I3
g130
tp1576
a(I0
g178
tp1577
a(I1
g130
tp1578
a(I2
g285
tp1579
a(I3
g285
tp1580
a(I0
g178
tp1581
a(I1
g130
tp1582
a(I2
g285
tp1583
a(I3
g285
tp1584
a(I0
g178
tp1585
a(I1
g130
tp1586
a(I2
g285
tp1587
a(I3
g285
tp1588
a(I0
g130
tp1589
a(I1
g130
tp1590
a(I2
g285
tp1591
a(I3
g285
tp1592
a(I0
g178
tp1593
a(I1
g130
tp1594
a(I2
g285
tp1595
a(I3
g285
tp1596
a(I0
g178
tp1597
a(I1
g130
tp1598
a(I2
g285
tp1599
a(I3
g285
tp1600
a(I0
g128
tp1601
a(I1
g130
tp1602
a(I2
g285
tp1603
a(I3
g285
tp1604
a(I0
g178
tp1605
a(I1
g130
tp1606
a(I2
g285
tp1607
a(I3
g285
tp1608
a(I0
g178
tp1609
a(I1
g130
tp1610
a(I2
g285
tp1611
a(I3
g285
tp1612
a(I0
g178
tp1613
a(I1
g130
tp1614
a(I2
g285
tp1615
a(I3
g285
tp1616
a(I0
g178
tp1617
a(I1
g130
tp1618
a(I2
g285
tp1619
a(I3
g285
tp1620
a(I0
g130
tp1621
a(I1
g180
tp1622
a(I2
g285
tp1623
a(I3
g285
tp1624
a(I0
g178
tp1625
a(I1
g180
tp1626
a(I2
g285
tp1627
a(I3
g285
tp1628
a(I0
g178
tp1629
a(I1
g128
tp1630
a(I2
g285
tp1631
a(I3
g285
tp1632
a(I0
g128
tp1633
a(I1
g128
tp1634
a(I2
g285
tp1635
a(I3
g285
tp1636
a(I0
g130
tp1637
a(I1
g128
tp1638
a(I2
g285
tp1639
a(I3
g285
tp1640
a(I0
g130
tp1641
a(I1
g128
tp1642
a(I2
g285
tp1643
a(I3
g285
tp1644
a(I0
g130
tp1645
a(I1
g180
tp1646
a(I2
g285
tp1647
a(I3
g285
tp1648
a(I0
g130
tp1649
a(I1
g128
tp1650
a(I2
g285
tp1651
a(I3
g285
tp1652
a(I0
g130
tp1653
a(I1
g128
tp1654
a(I2
g285
tp1655
a(I3
g285
tp1656
a(I0
g285
tp1657
a(I1
g128
tp1658
a(I2
g285
tp1659
a(I3
g285
tp1660
a(I0
g128
tp1661
a(I1
g128
tp1662
a(I2
g285
tp1663
a(I3
g285
tp1664
a(I0
g128
tp1665
a(I1
g180
tp1666
a(I2
g285
tp1667
a(I3
g285
tp1668
a(I0
g128
tp1669
a(I1
g128
tp1670
a(I2
g285
tp1671
a(I3
g285
tp1672
a(I0
g128
tp1673
a(I1
g128
tp1674
a(I2
g285
tp1675
a(I3
g285
tp1676
a(I0
g180
tp1677
a(I1
g128
tp1678
a(I2
g285
tp1679
a(I3
g285
tp1680
a(I0
g180
tp1681
a(I1
g128
tp1682
a(I2
g285
tp1683
a(I3
g285
tp1684
a(I0
g128
tp1685
a(I1
g180
tp1686
a(I2
g285
tp1687
a(I3
g285
tp1688
a(I0
g180
tp1689
a(I1
g180
tp1690
a(I2
g285
tp1691
a(I3
g285
tp1692
a(I0
g180
tp1693
a(I1
g128
tp1694
a(I2
g285
tp1695
a(I3
g285
tp1696
a(I0
g180
tp1697
a(I1
g180
tp1698
a(I2
g285
tp1699
a(I3
g285
tp1700
a(I0
g180
tp1701
a(I1
g180
tp1702
a(I2
g285
tp1703
a(I3
g285
tp1704
a(I0
g130
tp1705
a(I1
g180
tp1706
a(I2
g285
tp1707
a(I3
g285
tp1708
a(I0
g130
tp1709
a(I1
g180
tp1710
a(I2
g285
tp1711
a(I3
g285
tp1712
a(I0
g130
tp1713
a(I1
g130
tp1714
a(I2
g285
tp1715
a(I3
g285
tp1716
a(I0
g180
tp1717
a(I1
g130
tp1718
a(I2
g285
tp1719
a(I3
g285
tp1720
a(I0
g180
tp1721
a(I1
g130
tp1722
a(I2
g285
tp1723
a(I3
g285
tp1724
a(I0
g130
tp1725
a(I1
g180
tp1726
a(I2
g285
tp1727
a(I3
g285
tp1728
a(I0
g130
tp1729
a(I1
g180
tp1730
a(I2
g285
tp1731
a(I3
g285
tp1732
a(I0
g178
tp1733
a(I1
g130
tp1734
a(I2
g285
tp1735
a(I3
g285
tp1736
a(I0
g178
tp1737
a(I1
g130
tp1738
a(I2
g285
tp1739
a(I3
g285
tp1740
a(I0
g178
tp1741
a(I1
g178
tp1742
a(I2
g285
tp1743
a(I3
g285
tp1744
a(I0
g178
tp1745
a(I1
g178
tp1746
a(I2
g285
tp1747
a(I3
g285
tp1748
a(I0
g178
tp1749
a(I1
g178
tp1750
a(I2
g285
tp1751
a(I3
g285
tp1752
a(I0
g178
tp1753
a(I1
g178
tp1754
a(I2
g285
tp1755
a(I3
g285
tp1756
a(I0
g128
tp1757
a(I1
g178
tp1758
a(I2
g285
tp1759
a(I3
g285
tp1760
a(I0
g178
tp1761
a(I1
g178
tp1762
a(I2
g285
tp1763
a(I3
g285
tp1764
a(I0
g178
tp1765
a(I1
g128
tp1766
a(I2
g285
tp1767
a(I3
g285
tp1768
a(I0
g130
tp1769
a(I1
g178
tp1770
a(I2
g285
tp1771
a(I3
g285
tp1772
a(I0
g178
tp1773
a(I1
g178
tp1774
a(I2
g285
tp1775
a(I3
g285
tp1776
a(I0
g130
tp1777
a(I1
g130
tp1778
a(I2
g285
tp1779
a(I3
g285
tp1780
a(I0
g130
tp1781
a(I1
g178
tp1782
a(I2
g285
tp1783
a(I3
g285
tp1784
a(I0
g130
tp1785
a(I1
g130
tp1786
a(I2
g285
tp1787
a(I3
g285
tp1788
a(I0
g130
tp1789
a(I1
g130
tp1790
a(I2
g285
tp1791
a(I3
g285
tp1792
a(I0
g180
tp1793
a(I1
g130
tp1794
a(I2
g285
tp1795
a(I3
g285
tp1796
a(I0
g180
tp1797
a(I1
g130
tp1798
a(I2
g285
tp1799
a(I3
g285
tp1800
a(I0
g130
tp1801
a(I1
g180
tp1802
a(I2
g285
tp1803
a(I3
g285
tp1804
a(I0
g130
tp1805
a(I1
g180
tp1806
a(I2
g285
tp1807
a(I3
g285
tp1808
a(I0
g130
tp1809
a(I1
g130
tp1810
a(I2
g285
tp1811
a(I3
g285
tp1812
a(I0
g180
tp1813
a(I1
g130
tp1814
a(I2
g285
tp1815
a(I3
g285
tp1816
a(I0
g180
tp1817
a(I1
g130
tp1818
a(I2
g285
tp1819
a(I3
g285
tp1820
a(I0
g128
tp1821
a(I1
g180
tp1822
a(I2
g285
tp1823
a(I3
g285
tp1824
a(I0
g285
tp1825
a(I1
g180
tp1826
a(I2
g285
tp1827
a(I3
g285
tp1828
a(I0
g128
tp1829
a(I1
g128
tp1830
a(I2
g285
tp1831
a(I3
g285
tp1832
a(I0
g130
tp1833
a(I1
g130
tp1834
a(I2
g285
tp1835
a(I3
g285
tp1836
a(I0
g128
tp1837
a(I1
g180
tp1838
a(I2
g285
tp1839
a(I3
g285
tp1840
a(I0
g128
tp1841
a(I1
g180
tp1842
a(I2
g285
tp1843
a(I3
g285
tp1844
a(I0
g128
tp1845
a(I1
g180
tp1846
a(I2
g285
tp1847
a(I3
g285
tp1848
a(I0
g128
tp1849
a(I1
g180
tp1850
a(I2
g285
tp1851
a(I3
g285
tp1852
a(I0
g128
tp1853
a(I1
g128
tp1854
a(I2
g285
tp1855
a(I3
g285
tp1856
a(I0
g128
tp1857
a(I1
g128
tp1858
a(I2
g285
tp1859
a(I3
g285
tp1860
a(I0
g128
tp1861
a(I1
g128
tp1862
a(I2
g285
tp1863
a(I3
g285
tp1864
a(I0
g128
tp1865
a(I1
g128
tp1866
a(I2
g285
tp1867
a(I3
g285
tp1868
a(I0
g128
tp1869
a(I1
g128
tp1870
a(I2
g285
tp1871
a(I3
g285
tp1872
a(I0
g128
tp1873
a(I1
g180
tp1874
a(I2
g285
tp1875
a(I3
g285
tp1876
a(I0
g128
tp1877
a(I1
g180
tp1878
a(I2
g285
tp1879
a(I3
g285
tp1880
a(I0
g128
tp1881
a(I1
g128
tp1882
a(I2
g285
tp1883
a(I3
g285
tp1884
a(I0
g178
tp1885
a(I1
g180
tp1886
a(I2
g285
tp1887
a(I3
g285
tp1888
a(I0
g178
tp1889
a(I1
g180
tp1890
a(I2
g180
tp1891
a(I3
g178
tp1892
a(I0
g130
tp1893
a(I1
g180
tp1894
a(I2
g180
tp1895
a(I3
g180
tp1896
a(I0
g130
tp1897
a(I1
g128
tp1898
a(I2
g128
tp1899
a(I3
g178
tp1900
a(I0
g130
tp1901
a(I1
g130
tp1902
a(I2
g180
tp1903
a(I3
g180
tp1904
a(I0
g130
tp1905
a(I1
g180
tp1906
a(I2
g180
tp1907
a(I3
g128
tp1908
a(I0
g178
tp1909
a(I1
g180
tp1910
a(I2
g128
tp1911
a(I3
g130
tp1912
a(I0
g130
tp1913
a(I1
g128
tp1914
a(I2
g128
tp1915
a(I3
g285
tp1916
a(I0
g128
tp1917
a(I1
g180
tp1918
a(I2
g178
tp1919
a(I3
g178
tp1920
a(I0
g178
tp1921
a(I1
g180
tp1922
a(I2
g178
tp1923
a(I3
g180
tp1924
a(I0
g178
tp1925
a(I1
g178
tp1926
a(I2
g128
tp1927
a(I3
g178
tp1928
a(I0
g128
tp1929
a(I1
g178
tp1930
a(I2
g128
tp1931
a(I3
g180
tp1932
a(I0
g128
tp1933
a(I1
g130
tp1934
a(I2
g180
tp1935
a(I3
g128
tp1936
a(I0
g128
tp1937
a(I1
g130
tp1938
a(I2
g128
tp1939
a(I3
g128
tp1940
a(I0
g178
tp1941
a(I1
g130
tp1942
a(I2
g130
tp1943
a(I3
g128
tp1944
a(I0
g178
tp1945
a(I1
g130
tp1946
a(I2
g178
tp1947
a(I3
g285
tp1948
a(I0
g178
tp1949
a(I1
g130
tp1950
a(I2
g130
tp1951
a(I3
g130
tp1952
a(I0
g178
tp1953
a(I1
g130
tp1954
a(I2
g130
tp1955
a(I3
g128
tp1956
a(I0
g178
tp1957
a(I1
g130
tp1958
a(I2
g128
tp1959
a(I3
g130
tp1960
a(I0
g178
tp1961
a(I1
g130
tp1962
a(I2
g130
tp1963
a(I3
g128
tp1964
a(I0
g128
tp1965
a(I1
g130
tp1966
a(I2
g128
tp1967
a(I3
g178
tp1968
a(I0
g178
tp1969
a(I1
g130
tp1970
a(I2
g178
tp1971
a(I3
g180
tp1972
a(I0
g178
tp1973
a(I1
g130
tp1974
a(I2
g178
tp1975
a(I3
g285
tp1976
a(I0
g178
tp1977
a(I1
g130
tp1978
a(I2
g130
tp1979
a(I3
g285
tp1980
a(I0
g178
tp1981
a(I1
g130
tp1982
a(I2
g285
tp1983
a(I3
g285
tp1984
a(I0
g178
tp1985
a(I1
g130
tp1986
a(I2
g285
tp1987
a(I3
g285
tp1988
a(I0
g178
tp1989
a(I1
g180
tp1990
a(I2
g285
tp1991
a(I3
g285
tp1992
a(I0
g130
tp1993
a(I1
g180
tp1994
a(I2
g285
tp1995
a(I3
g285
tp1996
a(I0
g178
tp1997
a(I1
g128
tp1998
a(I2
g285
tp1999
a(I3
g285
tp2000
a(I0
g178
tp2001
a(I1
g128
tp2002
a(I2
g285
tp2003
a(I3
g285
tp2004
a(I0
g128
tp2005
a(I1
g128
tp2006
a(I2
g285
tp2007
a(I3
g285
tp2008
a(I0
g178
tp2009
a(I1
g128
tp2010
a(I2
g285
tp2011
a(I3
g285
tp2012
a(I0
g178
tp2013
a(I1
g180
tp2014
a(I2
g285
tp2015
a(I3
g285
tp2016
a(I0
g178
tp2017
a(I1
g128
tp2018
a(I2
g285
tp2019
a(I3
g285
tp2020
a(I0
g178
tp2021
a(I1
g128
tp2022
a(I2
g285
tp2023
a(I3
g285
tp2024
a(I0
g130
tp2025
a(I1
g128
tp2026
a(I2
g285
tp2027
a(I3
g285
tp2028
a(I0
g178
tp2029
a(I1
g180
tp2030
a(I2
g285
tp2031
a(I3
g285
tp2032
a(I0
g178
tp2033
a(I1
g128
tp2034
a(I2
g285
tp2035
a(I3
g285
tp2036
a(I0
g130
tp2037
a(I1
g128
tp2038
a(I2
g285
tp2039
a(I3
g285
tp2040
a(I0
g128
tp2041
a(I1
g128
tp2042
a(I2
g285
tp2043
a(I3
g285
tp2044
a(I0
g180
tp2045
a(I1
g128
tp2046
a(I2
g285
tp2047
a(I3
g285
tp2048
a(I0
g180
tp2049
a(I1
g128
tp2050
a(I2
g285
tp2051
a(I3
g285
tp2052
a(I0
g128
tp2053
a(I1
g180
tp2054
a(I2
g285
tp2055
a(I3
g285
tp2056
a(I0
g180
tp2057
a(I1
g180
tp2058
a(I2
g285
tp2059
a(I3
g285
tp2060
a(I0
g180
tp2061
a(I1
g128
tp2062
a(I2
g285
tp2063
a(I3
g285
tp2064
a(I0
g180
tp2065
a(I1
g180
tp2066
a(I2
g285
tp2067
a(I3
g285
tp2068
a(I0
g180
tp2069
a(I1
g180
tp2070
a(I2
g285
tp2071
a(I3
g285
tp2072
a(I0
g130
tp2073
a(I1
g180
tp2074
a(I2
g285
tp2075
a(I3
g285
tp2076
a(I0
g130
tp2077
a(I1
g180
tp2078
a(I2
g285
tp2079
a(I3
g285
tp2080
a(I0
g130
tp2081
a(I1
g130
tp2082
a(I2
g285
tp2083
a(I3
g285
tp2084
a(I0
g180
tp2085
a(I1
g130
tp2086
a(I2
g285
tp2087
a(I3
g285
tp2088
a(I0
g180
tp2089
a(I1
g130
tp2090
a(I2
g285
tp2091
a(I3
g285
tp2092
a(I0
g130
tp2093
a(I1
g180
tp2094
a(I2
g285
tp2095
a(I3
g285
tp2096
a(I0
g130
tp2097
a(I1
g180
tp2098
a(I2
g285
tp2099
a(I3
g285
tp2100
a(I0
g178
tp2101
a(I1
g130
tp2102
a(I2
g285
tp2103
a(I3
g285
tp2104
a(I0
g178
tp2105
a(I1
g130
tp2106
a(I2
g285
tp2107
a(I3
g285
tp2108
a(I0
g178
tp2109
a(I1
g178
tp2110
a(I2
g285
tp2111
a(I3
g285
tp2112
a(I0
g178
tp2113
a(I1
g178
tp2114
a(I2
g285
tp2115
a(I3
g285
tp2116
a(I0
g178
tp2117
a(I1
g178
tp2118
a(I2
g285
tp2119
a(I3
g285
tp2120
a(I0
g178
tp2121
a(I1
g178
tp2122
a(I2
g285
tp2123
a(I3
g285
tp2124
a(I0
g128
tp2125
a(I1
g178
tp2126
a(I2
g285
tp2127
a(I3
g285
tp2128
a(I0
g178
tp2129
a(I1
g178
tp2130
a(I2
g285
tp2131
a(I3
g285
tp2132
a(I0
g178
tp2133
a(I1
g128
tp2134
a(I2
g285
tp2135
a(I3
g285
tp2136
a(I0
g130
tp2137
a(I1
g178
tp2138
a(I2
g285
tp2139
a(I3
g285
tp2140
a(I0
g178
tp2141
a(I1
g178
tp2142
a(I2
g285
tp2143
a(I3
g285
tp2144
a(I0
g130
tp2145
a(I1
g130
tp2146
a(I2
g285
tp2147
a(I3
g285
tp2148
a(I0
g130
tp2149
a(I1
g178
tp2150
a(I2
g285
tp2151
a(I3
g285
tp2152
a(I0
g130
tp2153
a(I1
g130
tp2154
a(I2
g285
tp2155
a(I3
g285
tp2156
a(I0
g130
tp2157
a(I1
g130
tp2158
a(I2
g285
tp2159
a(I3
g285
tp2160
a(I0
g180
tp2161
a(I1
g130
tp2162
a(I2
g285
tp2163
a(I3
g285
tp2164
a(I0
g180
tp2165
a(I1
g130
tp2166
a(I2
g285
tp2167
a(I3
g285
tp2168
a(I0
g130
tp2169
a(I1
g180
tp2170
a(I2
g285
tp2171
a(I3
g285
tp2172
a(I0
g130
tp2173
a(I1
g180
tp2174
a(I2
g285
tp2175
a(I3
g285
tp2176
a(I0
g130
tp2177
a(I1
g130
tp2178
a(I2
g285
tp2179
a(I3
g285
tp2180
a(I0
g180
tp2181
a(I1
g130
tp2182
a(I2
g285
tp2183
a(I3
g285
tp2184
a(I0
g180
tp2185
a(I1
g130
tp2186
a(I2
g285
tp2187
a(I3
g285
tp2188
a(I0
g128
tp2189
a(I1
g180
tp2190
a(I2
g285
tp2191
a(I3
g285
tp2192
a(I0
g285
tp2193
a(I1
g180
tp2194
a(I2
g285
tp2195
a(I3
g285
tp2196
a(I0
g128
tp2197
a(I1
g128
tp2198
a(I2
g285
tp2199
a(I3
g285
tp2200
a(I0
g130
tp2201
a(I1
g130
tp2202
a(I2
g285
tp2203
a(I3
g285
tp2204
a(I0
g128
tp2205
a(I1
g180
tp2206
a(I2
g285
tp2207
a(I3
g285
tp2208
a(I0
g128
tp2209
a(I1
g180
tp2210
a(I2
g285
tp2211
a(I3
g285
tp2212
a(I0
g128
tp2213
a(I1
g180
tp2214
a(I2
g285
tp2215
a(I3
g285
tp2216
a(I0
g128
tp2217
a(I1
g180
tp2218
a(I2
g285
tp2219
a(I3
g285
tp2220
a(I0
g128
tp2221
a(I1
g128
tp2222
a(I2
g285
tp2223
a(I3
g285
tp2224
a(I0
g128
tp2225
a(I1
g180
tp2226
a(I2
g285
tp2227
a(I3
g285
tp2228
a(I0
g128
tp2229
a(I1
g180
tp2230
a(I2
g285
tp2231
a(I3
g285
tp2232
a(I0
g128
tp2233
a(I1
g180
tp2234
a(I2
g285
tp2235
a(I3
g285
tp2236
a(I0
g128
tp2237
a(I1
g128
tp2238
a(I2
g285
tp2239
a(I3
g285
tp2240
a(I0
g128
tp2241
a(I1
g285
tp2242
a(I2
g285
tp2243
a(I3
g285
tp2244
a(I0
g128
tp2245
a(I1
g285
tp2246
a(I2
g285
tp2247
a(I3
g285
tp2248
a(I0
g128
tp2249
a(I1
g285
tp2250
a(I2
g285
tp2251
a(I3
g285
tp2252
a(I0
g178
tp2253
a(I1
g285
tp2254
a(I2
g285
tp2255
a(I3
g285
tp2256
a(I0
g178
tp2257
a(I1
g285
tp2258
a(I2
g285
tp2259
a(I3
g285
tp2260
a(I0
g130
tp2261
a(I1
g285
tp2262
a(I2
g285
tp2263
a(I3
g285
tp2264
a(I0
g130
tp2265
a(I1
g285
tp2266
a(I2
g285
tp2267
a(I3
g285
tp2268
a(I0
g130
tp2269
a(I1
g285
tp2270
a(I2
g285
tp2271
a(I3
g285
tp2272
a(I0
g130
tp2273
a(I1
g285
tp2274
a(I2
g285
tp2275
a(I3
g285
tp2276
a(I0
g178
tp2277
a(I1
g285
tp2278
a(I2
g285
tp2279
a(I3
g285
tp2280
a(I0
g178
tp2281
a(I1
g285
tp2282
a(I2
g285
tp2283
a(I3
g285
tp2284
a(I0
g178
tp2285
a(I1
g285
tp2286
a(I2
g285
tp2287
a(I3
g285
tp2288
a(I0
g128
tp2289
a(I1
g285
tp2290
a(I2
g285
tp2291
a(I3
g285
tp2292
a(I0
g128
tp2293
a(I1
g285
tp2294
a(I2
g285
tp2295
a(I3
g285
tp2296
a(I0
g128
tp2297
a(I1
g285
tp2298
a(I2
g285
tp2299
a(I3
g285
tp2300
a(I0
g178
tp2301
a(I1
g285
tp2302
a(I2
g285
tp2303
a(I3
g285
tp2304
a(I0
g178
tp2305
a(I1
g285
tp2306
a(I2
g285
tp2307
a(I3
g285
tp2308
a(I0
g178
tp2309
a(I1
g285
tp2310
a(I2
g285
tp2311
a(I3
g285
tp2312
a(I0
g178
tp2313
a(I1
g285
tp2314
a(I2
g285
tp2315
a(I3
g285
tp2316
a(I0
g178
tp2317
a(I1
g285
tp2318
a(I2
g285
tp2319
a(I3
g285
tp2320
a(I0
g178
tp2321
a(I1
g285
tp2322
a(I2
g285
tp2323
a(I3
g285
tp2324
a(I0
g128
tp2325
a(I1
g285
tp2326
a(I2
g285
tp2327
a(I3
g285
tp2328
a(I0
g178
tp2329
a(I1
g285
tp2330
a(I2
g285
tp2331
a(I3
g285
tp2332
a(I0
g178
tp2333
a(I1
g285
tp2334
a(I2
g285
tp2335
a(I3
g285
tp2336
a(I0
g178
tp2337
a(I1
g285
tp2338
a(I2
g285
tp2339
a(I3
g285
tp2340
a(I0
g178
tp2341
a(I1
g285
tp2342
a(I2
g285
tp2343
a(I3
g285
tp2344
a(I0
g178
tp2345
a(I1
g285
tp2346
a(I2
g285
tp2347
a(I3
g285
tp2348
a(I0
g178
tp2349
a(I1
g285
tp2350
a(I2
g285
tp2351
a(I3
g285
tp2352
a(I0
g130
tp2353
a(I1
g285
tp2354
a(I2
g285
tp2355
a(I3
g285
tp2356
a(I0
g178
tp2357
a(I1
g285
tp2358
a(I2
g285
tp2359
a(I3
g285
tp2360
a(I0
g178
tp2361
a(I1
g285
tp2362
a(I2
g285
tp2363
a(I3
g285
tp2364
a(I0
g128
tp2365
a(I1
g285
tp2366
a(I2
g285
tp2367
a(I3
g285
tp2368
a(I0
g178
tp2369
a(I1
g285
tp2370
a(I2
g285
tp2371
a(I3
g285
tp2372
a(I0
g178
tp2373
a(I1
g285
tp2374
a(I2
g285
tp2375
a(I3
g285
tp2376
a(I0
g178
tp2377
a(I1
g285
tp2378
a(I2
g285
tp2379
a(I3
g285
tp2380
a(I0
g178
tp2381
a(I1
g285
tp2382
a(I2
g285
tp2383
a(I3
g285
tp2384
a(I0
g130
tp2385
a(I1
g285
tp2386
a(I2
g285
tp2387
a(I3
g285
tp2388
a(I0
g178
tp2389
a(I1
g285
tp2390
a(I2
g285
tp2391
a(I3
g285
tp2392
a(I0
g178
tp2393
a(I1
g285
tp2394
a(I2
g285
tp2395
a(I3
g285
tp2396
a(I0
g130
tp2397
a(I1
g285
tp2398
a(I2
g285
tp2399
a(I3
g285
tp2400
a(I0
g130
tp2401
a(I1
g285
tp2402
a(I2
g285
tp2403
a(I3
g285
tp2404
a(I0
g130
tp2405
a(I1
g285
tp2406
a(I2
g285
tp2407
a(I3
g285
tp2408
a(I0
g130
tp2409
a(I1
g285
tp2410
a(I2
g285
tp2411
a(I3
g285
tp2412
a(I0
g130
tp2413
a(I1
g285
tp2414
a(I2
g285
tp2415
a(I3
g285
tp2416
a(I0
g178
tp2417
a(I1
g285
tp2418
a(I2
g285
tp2419
a(I3
g285
tp2420
a(I0
g130
tp2421
a(I1
g285
tp2422
a(I2
g285
tp2423
a(I3
g285
tp2424
a(I0
g178
tp2425
a(I1
g285
tp2426
a(I2
g285
tp2427
a(I3
g285
tp2428
a(I0
g180
tp2429
a(I1
g285
tp2430
a(I2
g285
tp2431
a(I3
g285
tp2432
a(I0
g130
tp2433
a(I1
g285
tp2434
a(I2
g285
tp2435
a(I3
g285
tp2436
a(I0
g130
tp2437
a(I1
g285
tp2438
a(I2
g285
tp2439
a(I3
g285
tp2440
a(I0
g180
tp2441
a(I1
g285
tp2442
a(I2
g285
tp2443
a(I3
g285
tp2444
a(I0
g180
tp2445
a(I1
g285
tp2446
a(I2
g285
tp2447
a(I3
g285
tp2448
a(I0
g128
tp2449
a(I1
g285
tp2450
a(I2
g285
tp2451
a(I3
g285
tp2452
a(I0
g180
tp2453
a(I1
g285
tp2454
a(I2
g285
tp2455
a(I3
g285
tp2456
a(I0
g128
tp2457
a(I1
g285
tp2458
a(I2
g285
tp2459
a(I3
g285
tp2460
a(I0
g130
tp2461
a(I1
g285
tp2462
a(I2
g285
tp2463
a(I3
g285
tp2464
a(I0
g180
tp2465
a(I1
g285
tp2466
a(I2
g285
tp2467
a(I3
g285
tp2468
a(I0
g178
tp2469
a(I1
g285
tp2470
a(I2
g285
tp2471
a(I3
g285
tp2472
a(I0
g178
tp2473
a(I1
g285
tp2474
a(I2
g285
tp2475
a(I3
g285
tp2476
a(I0
g130
tp2477
a(I1
g285
tp2478
a(I2
g285
tp2479
a(I3
g285
tp2480
a(I0
g130
tp2481
a(I1
g285
tp2482
a(I2
g285
tp2483
a(I3
g285
tp2484
a(I0
g130
tp2485
a(I1
g285
tp2486
a(I2
g285
tp2487
a(I3
g285
tp2488
a(I0
g178
tp2489
a(I1
g285
tp2490
a(I2
g285
tp2491
a(I3
g285
tp2492
a(I0
g180
tp2493
a(I1
g285
tp2494
a(I2
g285
tp2495
a(I3
g285
tp2496
a(I0
g130
tp2497
a(I1
g285
tp2498
a(I2
g285
tp2499
a(I3
g285
tp2500
a(I0
g130
tp2501
a(I1
g285
tp2502
a(I2
g285
tp2503
a(I3
g285
tp2504
a(I0
g178
tp2505
as.